
0-device-status.elf:     file format elf32-littlearm


Disassembly of section .text:

00008000 <__code_start__>:
    8000:	e3a00013 	mov	r0, #19
    8004:	e3800080 	orr	r0, r0, #128	; 0x80
    8008:	e129f000 	msr	CPSR_fc, r0
    800c:	e3a01000 	mov	r1, #0
    8010:	ee071f95 	mcr	15, 0, r1, cr7, cr5, {4}
    8014:	e3a0d302 	mov	sp, #134217728	; 0x8000000
    8018:	e3a0b000 	mov	fp, #0
    801c:	eb000134 	bl	84f4 <_cstart>
    8020:	eb00014d 	bl	855c <rpi_reboot>

00008024 <PUT32>:
    8024:	e5801000 	str	r1, [r0]
    8028:	e12fff1e 	bx	lr

0000802c <GET32>:
    802c:	e5900000 	ldr	r0, [r0]
    8030:	e12fff1e 	bx	lr

00008034 <BRANCHTO>:
    8034:	e12fff10 	bx	r0

00008038 <notmain>:
    8038:	e92d4010 	push	{r4, lr}
    803c:	eb000019 	bl	80a8 <configure_io>
    8040:	eb00007f 	bl	8244 <read_device_status>
    8044:	e8bd8010 	pop	{r4, pc}

00008048 <clock_in>:
    8048:	e92d4010 	push	{r4, lr}
    804c:	e3a00006 	mov	r0, #6
    8050:	eb0000bc 	bl	8348 <gpio_set_on>
    8054:	e3a00001 	mov	r0, #1
    8058:	eb000162 	bl	85e8 <delay_us>
    805c:	e3a00006 	mov	r0, #6
    8060:	eb0000c3 	bl	8374 <gpio_set_off>
    8064:	e3a00001 	mov	r0, #1
    8068:	eb00015e 	bl	85e8 <delay_us>
    806c:	e8bd8010 	pop	{r4, pc}

00008070 <send_nbits>:
    8070:	e92d41f0 	push	{r4, r5, r6, r7, r8, lr}
    8074:	e1a07000 	mov	r7, r0
    8078:	e1a06001 	mov	r6, r1
    807c:	e1a05002 	mov	r5, r2
    8080:	e3a04000 	mov	r4, #0
    8084:	e1540005 	cmp	r4, r5
    8088:	28bd81f0 	popcs	{r4, r5, r6, r7, r8, pc}
    808c:	e1a01436 	lsr	r1, r6, r4
    8090:	e2011001 	and	r1, r1, #1
    8094:	e1a00007 	mov	r0, r7
    8098:	eb0000c0 	bl	83a0 <gpio_write>
    809c:	ebffffe9 	bl	8048 <clock_in>
    80a0:	e2844001 	add	r4, r4, #1
    80a4:	eafffff6 	b	8084 <send_nbits+0x14>

000080a8 <configure_io>:
    80a8:	e92d4010 	push	{r4, lr}
    80ac:	e3a0001a 	mov	r0, #26
    80b0:	eb0000a0 	bl	8338 <gpio_set_output>
    80b4:	e3a00006 	mov	r0, #6
    80b8:	eb00009e 	bl	8338 <gpio_set_output>
    80bc:	e3a00005 	mov	r0, #5
    80c0:	eb00009c 	bl	8338 <gpio_set_output>
    80c4:	e3a0000d 	mov	r0, #13
    80c8:	eb0000bb 	bl	83bc <gpio_set_input>
    80cc:	e3a0001a 	mov	r0, #26
    80d0:	eb0000a7 	bl	8374 <gpio_set_off>
    80d4:	e3a00006 	mov	r0, #6
    80d8:	eb0000a5 	bl	8374 <gpio_set_off>
    80dc:	e3a00005 	mov	r0, #5
    80e0:	eb0000a3 	bl	8374 <gpio_set_off>
    80e4:	e8bd8010 	pop	{r4, pc}

000080e8 <enter_programming_mode>:
    80e8:	e92d4010 	push	{r4, lr}
    80ec:	e3a03011 	mov	r3, #17
    80f0:	e59f200c 	ldr	r2, [pc, #12]	; 8104 <enter_programming_mode+0x1c>
    80f4:	e59f100c 	ldr	r1, [pc, #12]	; 8108 <enter_programming_mode+0x20>
    80f8:	e59f000c 	ldr	r0, [pc, #12]	; 810c <enter_programming_mode+0x24>
    80fc:	eb0000bf 	bl	8400 <printk>
    8100:	eb0000f0 	bl	84c8 <clean_reboot>
    8104:	000090d0 	ldrdeq	r9, [r0], -r0
    8108:	00009008 	andeq	r9, r0, r8
    810c:	00009010 	andeq	r9, r0, r0, lsl r0

00008110 <set_mode>:
    8110:	e92d4010 	push	{r4, lr}
    8114:	e1a04000 	mov	r4, r0
    8118:	e3a00005 	mov	r0, #5
    811c:	eb000094 	bl	8374 <gpio_set_off>
    8120:	e3a00006 	mov	r0, #6
    8124:	eb000092 	bl	8374 <gpio_set_off>
    8128:	e3a02006 	mov	r2, #6
    812c:	e1a01004 	mov	r1, r4
    8130:	e3a00013 	mov	r0, #19
    8134:	ebffffcd 	bl	8070 <send_nbits>
    8138:	e8bd8010 	pop	{r4, pc}

0000813c <send_command>:
    813c:	e92d4070 	push	{r4, r5, r6, lr}
    8140:	e1a05000 	mov	r5, r0
    8144:	e3a02004 	mov	r2, #4
    8148:	e3a0100c 	mov	r1, #12
    814c:	e3a00013 	mov	r0, #19
    8150:	ebffffc6 	bl	8070 <send_nbits>
    8154:	e3a00013 	mov	r0, #19
    8158:	eb000085 	bl	8374 <gpio_set_off>
    815c:	e3a04000 	mov	r4, #0
    8160:	ea000008 	b	8188 <send_command+0x4c>
    8164:	e3a00013 	mov	r0, #19
    8168:	eb000076 	bl	8348 <gpio_set_on>
    816c:	e1a01455 	asr	r1, r5, r4
    8170:	e2011001 	and	r1, r1, #1
    8174:	e3a00005 	mov	r0, #5
    8178:	eb000088 	bl	83a0 <gpio_write>
    817c:	ebffffb1 	bl	8048 <clock_in>
    8180:	e2844001 	add	r4, r4, #1
    8184:	e6ef4074 	uxtb	r4, r4
    8188:	e3540004 	cmp	r4, #4
    818c:	8a000002 	bhi	819c <send_command+0x60>
    8190:	e3540004 	cmp	r4, #4
    8194:	1afffff4 	bne	816c <send_command+0x30>
    8198:	eafffff1 	b	8164 <send_command+0x28>
    819c:	e3a02002 	mov	r2, #2
    81a0:	e1a01002 	mov	r1, r2
    81a4:	e3a00013 	mov	r0, #19
    81a8:	ebffffb0 	bl	8070 <send_nbits>
    81ac:	e8bd8070 	pop	{r4, r5, r6, pc}

000081b0 <xfer_data>:
    81b0:	e92d4070 	push	{r4, r5, r6, lr}
    81b4:	e1a06000 	mov	r6, r0
    81b8:	e3a00006 	mov	r0, #6
    81bc:	eb00006c 	bl	8374 <gpio_set_off>
    81c0:	e3a02003 	mov	r2, #3
    81c4:	e3a01004 	mov	r1, #4
    81c8:	e3a00013 	mov	r0, #19
    81cc:	ebffffa7 	bl	8070 <send_nbits>
    81d0:	e3a04000 	mov	r4, #0
    81d4:	e1a05004 	mov	r5, r4
    81d8:	ea000008 	b	8200 <xfer_data+0x50>
    81dc:	e1a01436 	lsr	r1, r6, r4
    81e0:	e2011001 	and	r1, r1, #1
    81e4:	e3a00005 	mov	r0, #5
    81e8:	eb00006c 	bl	83a0 <gpio_write>
    81ec:	e3a0000d 	mov	r0, #13
    81f0:	eb000075 	bl	83cc <gpio_read>
    81f4:	e1855410 	orr	r5, r5, r0, lsl r4
    81f8:	ebffff92 	bl	8048 <clock_in>
    81fc:	e2844001 	add	r4, r4, #1
    8200:	e354001e 	cmp	r4, #30
    8204:	9afffff4 	bls	81dc <xfer_data+0x2c>
    8208:	e3a00013 	mov	r0, #19
    820c:	eb00004d 	bl	8348 <gpio_set_on>
    8210:	e1a01fa6 	lsr	r1, r6, #31
    8214:	e3a00005 	mov	r0, #5
    8218:	eb000060 	bl	83a0 <gpio_write>
    821c:	e3a0000d 	mov	r0, #13
    8220:	eb000069 	bl	83cc <gpio_read>
    8224:	e1855f80 	orr	r5, r5, r0, lsl #31
    8228:	ebffff86 	bl	8048 <clock_in>
    822c:	e3a02002 	mov	r2, #2
    8230:	e1a01002 	mov	r1, r2
    8234:	e3a00013 	mov	r0, #19
    8238:	ebffff8c 	bl	8070 <send_nbits>
    823c:	e1a00005 	mov	r0, r5
    8240:	e8bd8070 	pop	{r4, r5, r6, pc}

00008244 <read_device_status>:
    8244:	e92d4010 	push	{r4, lr}
    8248:	e59f0058 	ldr	r0, [pc, #88]	; 82a8 <read_device_status+0x64>
    824c:	eb00006b 	bl	8400 <printk>
    8250:	e3a0001f 	mov	r0, #31
    8254:	ebffffad 	bl	8110 <set_mode>
    8258:	e59f004c 	ldr	r0, [pc, #76]	; 82ac <read_device_status+0x68>
    825c:	eb000067 	bl	8400 <printk>
    8260:	e3a00004 	mov	r0, #4
    8264:	ebffffb4 	bl	813c <send_command>
    8268:	e59f0040 	ldr	r0, [pc, #64]	; 82b0 <read_device_status+0x6c>
    826c:	eb000063 	bl	8400 <printk>
    8270:	e3a00007 	mov	r0, #7
    8274:	ebffffb0 	bl	813c <send_command>
    8278:	e59f0034 	ldr	r0, [pc, #52]	; 82b4 <read_device_status+0x70>
    827c:	eb00005f 	bl	8400 <printk>
    8280:	e3a00000 	mov	r0, #0
    8284:	ebffffc9 	bl	81b0 <xfer_data>
    8288:	e3100008 	tst	r0, #8
    828c:	1a000001 	bne	8298 <read_device_status+0x54>
    8290:	e3100004 	tst	r0, #4
    8294:	1afffff9 	bne	8280 <read_device_status+0x3c>
    8298:	e1a01000 	mov	r1, r0
    829c:	e59f0014 	ldr	r0, [pc, #20]	; 82b8 <read_device_status+0x74>
    82a0:	eb000056 	bl	8400 <printk>
    82a4:	e8bd8010 	pop	{r4, pc}
    82a8:	0000903c 	andeq	r9, r0, ip, lsr r0
    82ac:	0000904c 	andeq	r9, r0, ip, asr #32
    82b0:	0000906c 	andeq	r9, r0, ip, rrx
    82b4:	0000908c 	andeq	r9, r0, ip, lsl #1
    82b8:	000090ac 	andeq	r9, r0, ip, lsr #1

000082bc <valid_pin>:
    82bc:	e350002f 	cmp	r0, #47	; 0x2f
    82c0:	1350001f 	cmpne	r0, #31
    82c4:	93a00001 	movls	r0, #1
    82c8:	83a00000 	movhi	r0, #0
    82cc:	e12fff1e 	bx	lr

000082d0 <gpio_set_function>:
    82d0:	e92d4070 	push	{r4, r5, r6, lr}
    82d4:	e1a04000 	mov	r4, r0
    82d8:	e1a05001 	mov	r5, r1
    82dc:	ebfffff6 	bl	82bc <valid_pin>
    82e0:	e3500000 	cmp	r0, #0
    82e4:	08bd8070 	popeq	{r4, r5, r6, pc}
    82e8:	e3550007 	cmp	r5, #7
    82ec:	88bd8070 	pophi	{r4, r5, r6, pc}
    82f0:	e59f303c 	ldr	r3, [pc, #60]	; 8334 <gpio_set_function+0x64>
    82f4:	e0832493 	umull	r2, r3, r3, r4
    82f8:	e1a031a3 	lsr	r3, r3, #3
    82fc:	e1a02103 	lsl	r2, r3, #2
    8300:	e2826202 	add	r6, r2, #536870912	; 0x20000000
    8304:	e2866602 	add	r6, r6, #2097152	; 0x200000
    8308:	e0823003 	add	r3, r2, r3
    830c:	e0444083 	sub	r4, r4, r3, lsl #1
    8310:	e0844084 	add	r4, r4, r4, lsl #1
    8314:	e1a00006 	mov	r0, r6
    8318:	ebffff43 	bl	802c <GET32>
    831c:	e3a01007 	mov	r1, #7
    8320:	e1c01411 	bic	r1, r0, r1, lsl r4
    8324:	e1811415 	orr	r1, r1, r5, lsl r4
    8328:	e1a00006 	mov	r0, r6
    832c:	ebffff3c 	bl	8024 <PUT32>
    8330:	e8bd8070 	pop	{r4, r5, r6, pc}
    8334:	cccccccd 	stclgt	12, cr12, [ip], {205}	; 0xcd

00008338 <gpio_set_output>:
    8338:	e92d4010 	push	{r4, lr}
    833c:	e3a01001 	mov	r1, #1
    8340:	ebffffe2 	bl	82d0 <gpio_set_function>
    8344:	e8bd8010 	pop	{r4, pc}

00008348 <gpio_set_on>:
    8348:	e92d4010 	push	{r4, lr}
    834c:	e1a04000 	mov	r4, r0
    8350:	ebffffd9 	bl	82bc <valid_pin>
    8354:	e3500000 	cmp	r0, #0
    8358:	08bd8010 	popeq	{r4, pc}
    835c:	e3a01001 	mov	r1, #1
    8360:	e1a01411 	lsl	r1, r1, r4
    8364:	e59f0004 	ldr	r0, [pc, #4]	; 8370 <gpio_set_on+0x28>
    8368:	ebffff2d 	bl	8024 <PUT32>
    836c:	e8bd8010 	pop	{r4, pc}
    8370:	2020001c 	eorcs	r0, r0, ip, lsl r0

00008374 <gpio_set_off>:
    8374:	e92d4010 	push	{r4, lr}
    8378:	e1a04000 	mov	r4, r0
    837c:	ebffffce 	bl	82bc <valid_pin>
    8380:	e3500000 	cmp	r0, #0
    8384:	08bd8010 	popeq	{r4, pc}
    8388:	e3a01001 	mov	r1, #1
    838c:	e1a01411 	lsl	r1, r1, r4
    8390:	e59f0004 	ldr	r0, [pc, #4]	; 839c <gpio_set_off+0x28>
    8394:	ebffff22 	bl	8024 <PUT32>
    8398:	e8bd8010 	pop	{r4, pc}
    839c:	20200028 	eorcs	r0, r0, r8, lsr #32

000083a0 <gpio_write>:
    83a0:	e92d4010 	push	{r4, lr}
    83a4:	e3510000 	cmp	r1, #0
    83a8:	0a000001 	beq	83b4 <gpio_write+0x14>
    83ac:	ebffffe5 	bl	8348 <gpio_set_on>
    83b0:	e8bd8010 	pop	{r4, pc}
    83b4:	ebffffee 	bl	8374 <gpio_set_off>
    83b8:	e8bd8010 	pop	{r4, pc}

000083bc <gpio_set_input>:
    83bc:	e92d4010 	push	{r4, lr}
    83c0:	e3a01000 	mov	r1, #0
    83c4:	ebffffc1 	bl	82d0 <gpio_set_function>
    83c8:	e8bd8010 	pop	{r4, pc}

000083cc <gpio_read>:
    83cc:	e92d4010 	push	{r4, lr}
    83d0:	e1a04000 	mov	r4, r0
    83d4:	ebffffb8 	bl	82bc <valid_pin>
    83d8:	e3500000 	cmp	r0, #0
    83dc:	0a000004 	beq	83f4 <gpio_read+0x28>
    83e0:	e59f0014 	ldr	r0, [pc, #20]	; 83fc <gpio_read+0x30>
    83e4:	ebffff10 	bl	802c <GET32>
    83e8:	e1a00430 	lsr	r0, r0, r4
    83ec:	e2000001 	and	r0, r0, #1
    83f0:	e8bd8010 	pop	{r4, pc}
    83f4:	e3e00000 	mvn	r0, #0
    83f8:	e8bd8010 	pop	{r4, pc}
    83fc:	20200034 	eorcs	r0, r0, r4, lsr r0

00008400 <printk>:
    8400:	e92d000f 	push	{r0, r1, r2, r3}
    8404:	e92d4030 	push	{r4, r5, lr}
    8408:	e24dd00c 	sub	sp, sp, #12
    840c:	e28d301c 	add	r3, sp, #28
    8410:	e58d3004 	str	r3, [sp, #4]
    8414:	e59f5034 	ldr	r5, [pc, #52]	; 8450 <printk+0x50>
    8418:	e59d2018 	ldr	r2, [sp, #24]
    841c:	e3a01b01 	mov	r1, #1024	; 0x400
    8420:	e1a00005 	mov	r0, r5
    8424:	eb0001a0 	bl	8aac <va_printk>
    8428:	e1a04000 	mov	r4, r0
    842c:	e59f3020 	ldr	r3, [pc, #32]	; 8454 <printk+0x54>
    8430:	e5933000 	ldr	r3, [r3]
    8434:	e1a00005 	mov	r0, r5
    8438:	e12fff33 	blx	r3
    843c:	e1a00004 	mov	r0, r4
    8440:	e28dd00c 	add	sp, sp, #12
    8444:	e8bd4030 	pop	{r4, r5, lr}
    8448:	e28dd010 	add	sp, sp, #16
    844c:	e12fff1e 	bx	lr
    8450:	00009268 	andeq	r9, r0, r8, ror #4
    8454:	00009260 	andeq	r9, r0, r0, ror #4

00008458 <internal_putk>:
    8458:	e92d4010 	push	{r4, lr}
    845c:	e1a04000 	mov	r4, r0
    8460:	e5d40000 	ldrb	r0, [r4]
    8464:	e3500000 	cmp	r0, #0
    8468:	0a000004 	beq	8480 <internal_putk+0x28>
    846c:	e59f3014 	ldr	r3, [pc, #20]	; 8488 <internal_putk+0x30>
    8470:	e5933000 	ldr	r3, [r3]
    8474:	e12fff33 	blx	r3
    8478:	e2844001 	add	r4, r4, #1
    847c:	eafffff7 	b	8460 <internal_putk+0x8>
    8480:	e3a00001 	mov	r0, #1
    8484:	e8bd8010 	pop	{r4, pc}
    8488:	00009264 	andeq	r9, r0, r4, ror #4

0000848c <internal_putchar>:
    848c:	e92d4010 	push	{r4, lr}
    8490:	e1a04000 	mov	r4, r0
    8494:	eb0000af 	bl	8758 <uart_putc>
    8498:	e1a00004 	mov	r0, r4
    849c:	e8bd8010 	pop	{r4, pc}

000084a0 <rpi_reset_putc>:
    84a0:	e59f3008 	ldr	r3, [pc, #8]	; 84b0 <rpi_reset_putc+0x10>
    84a4:	e59f2008 	ldr	r2, [pc, #8]	; 84b4 <rpi_reset_putc+0x14>
    84a8:	e5832000 	str	r2, [r3]
    84ac:	e12fff1e 	bx	lr
    84b0:	00009264 	andeq	r9, r0, r4, ror #4
    84b4:	0000848c 	andeq	r8, r0, ip, lsl #9

000084b8 <rpi_set_putc>:
    84b8:	e59f3004 	ldr	r3, [pc, #4]	; 84c4 <rpi_set_putc+0xc>
    84bc:	e5830000 	str	r0, [r3]
    84c0:	e12fff1e 	bx	lr
    84c4:	00009264 	andeq	r9, r0, r4, ror #4

000084c8 <clean_reboot>:
    84c8:	e92d4010 	push	{r4, lr}
    84cc:	e59f3018 	ldr	r3, [pc, #24]	; 84ec <clean_reboot+0x24>
    84d0:	e5933000 	ldr	r3, [r3]
    84d4:	e59f0014 	ldr	r0, [pc, #20]	; 84f0 <clean_reboot+0x28>
    84d8:	e12fff33 	blx	r3
    84dc:	eb0000be 	bl	87dc <uart_flush_tx>
    84e0:	e3a0000a 	mov	r0, #10
    84e4:	eb000048 	bl	860c <delay_ms>
    84e8:	eb00001b 	bl	855c <rpi_reboot>
    84ec:	00009260 	andeq	r9, r0, r0, ror #4
    84f0:	000090e8 	andeq	r9, r0, r8, ror #1

000084f4 <_cstart>:
    84f4:	e92d4010 	push	{r4, lr}
    84f8:	eb00002d 	bl	85b4 <custom_loader>
    84fc:	e59f3024 	ldr	r3, [pc, #36]	; 8528 <_cstart+0x34>
    8500:	e59f2024 	ldr	r2, [pc, #36]	; 852c <_cstart+0x38>
    8504:	e1530002 	cmp	r3, r2
    8508:	33a02000 	movcc	r2, #0
    850c:	34832004 	strcc	r2, [r3], #4
    8510:	3afffffa 	bcc	8500 <_cstart+0xc>
    8514:	eb000051 	bl	8660 <uart_init>
    8518:	e3a03001 	mov	r3, #1
    851c:	ee0f3f1c 	mcr	15, 0, r3, cr15, cr12, {0}
    8520:	ebfffec4 	bl	8038 <notmain>
    8524:	ebffffe7 	bl	84c8 <clean_reboot>
    8528:	00009268 	andeq	r9, r0, r8, ror #4
    852c:	00009668 	andeq	r9, r0, r8, ror #12

00008530 <at_user_level>:
    8530:	e10f0000 	mrs	r0, CPSR
    8534:	e200001f 	and	r0, r0, #31
    8538:	e3500010 	cmp	r0, #16
    853c:	13a00000 	movne	r0, #0
    8540:	03a00001 	moveq	r0, #1
    8544:	e12fff1e 	bx	lr

00008548 <set_user_level>:
    8548:	e10f3000 	mrs	r3, CPSR
    854c:	e3c3301f 	bic	r3, r3, #31
    8550:	e3833010 	orr	r3, r3, #16
    8554:	e129f003 	msr	CPSR_fc, r3
    8558:	e12fff1e 	bx	lr

0000855c <rpi_reboot>:
    855c:	e92d4010 	push	{r4, lr}
    8560:	ebfffff2 	bl	8530 <at_user_level>
    8564:	e3500000 	cmp	r0, #0
    8568:	1a00000a 	bne	8598 <rpi_reboot+0x3c>
    856c:	eb00000f 	bl	85b0 <reboot_callout>
    8570:	eb000099 	bl	87dc <uart_flush_tx>
    8574:	e3a0000a 	mov	r0, #10
    8578:	eb000023 	bl	860c <delay_ms>
    857c:	e59f101c 	ldr	r1, [pc, #28]	; 85a0 <rpi_reboot+0x44>
    8580:	e59f001c 	ldr	r0, [pc, #28]	; 85a4 <rpi_reboot+0x48>
    8584:	ebfffea6 	bl	8024 <PUT32>
    8588:	e59f1018 	ldr	r1, [pc, #24]	; 85a8 <rpi_reboot+0x4c>
    858c:	e59f0018 	ldr	r0, [pc, #24]	; 85ac <rpi_reboot+0x50>
    8590:	ebfffea3 	bl	8024 <PUT32>
    8594:	eafffffe 	b	8594 <rpi_reboot+0x38>
    8598:	ebffffea 	bl	8548 <set_user_level>
    859c:	eafffff2 	b	856c <rpi_reboot+0x10>
    85a0:	5a000001 	bpl	85ac <rpi_reboot+0x50>
    85a4:	20100024 	andscs	r0, r0, r4, lsr #32
    85a8:	5a000020 	bpl	8630 <delay_sec+0xc>
    85ac:	2010001c 	andscs	r0, r0, ip, lsl r0

000085b0 <reboot_callout>:
    85b0:	e12fff1e 	bx	lr

000085b4 <custom_loader>:
    85b4:	e12fff1e 	bx	lr

000085b8 <timer_get_usec_raw>:
    85b8:	e92d4010 	push	{r4, lr}
    85bc:	e59f0004 	ldr	r0, [pc, #4]	; 85c8 <timer_get_usec_raw+0x10>
    85c0:	ebfffe99 	bl	802c <GET32>
    85c4:	e8bd8010 	pop	{r4, pc}
    85c8:	20003004 	andcs	r3, r0, r4

000085cc <timer_get_usec>:
    85cc:	e92d4010 	push	{r4, lr}
    85d0:	eb000286 	bl	8ff0 <dev_barrier>
    85d4:	ebfffff7 	bl	85b8 <timer_get_usec_raw>
    85d8:	e1a04000 	mov	r4, r0
    85dc:	eb000283 	bl	8ff0 <dev_barrier>
    85e0:	e1a00004 	mov	r0, r4
    85e4:	e8bd8010 	pop	{r4, pc}

000085e8 <delay_us>:
    85e8:	e92d4070 	push	{r4, r5, r6, lr}
    85ec:	e1a05000 	mov	r5, r0
    85f0:	ebfffff5 	bl	85cc <timer_get_usec>
    85f4:	e1a04000 	mov	r4, r0
    85f8:	ebfffff3 	bl	85cc <timer_get_usec>
    85fc:	e0400004 	sub	r0, r0, r4
    8600:	e1500005 	cmp	r0, r5
    8604:	3afffffb 	bcc	85f8 <delay_us+0x10>
    8608:	e8bd8070 	pop	{r4, r5, r6, pc}

0000860c <delay_ms>:
    860c:	e92d4010 	push	{r4, lr}
    8610:	e0603280 	rsb	r3, r0, r0, lsl #5
    8614:	e0800103 	add	r0, r0, r3, lsl #2
    8618:	e1a00180 	lsl	r0, r0, #3
    861c:	ebfffff1 	bl	85e8 <delay_us>
    8620:	e8bd8010 	pop	{r4, pc}

00008624 <delay_sec>:
    8624:	e92d4010 	push	{r4, lr}
    8628:	e0603280 	rsb	r3, r0, r0, lsl #5
    862c:	e0800103 	add	r0, r0, r3, lsl #2
    8630:	e1a00180 	lsl	r0, r0, #3
    8634:	ebfffff4 	bl	860c <delay_ms>
    8638:	e8bd8010 	pop	{r4, pc}

0000863c <uart_can_getc>:
    863c:	e92d4010 	push	{r4, lr}
    8640:	eb00026a 	bl	8ff0 <dev_barrier>
    8644:	e59f0010 	ldr	r0, [pc, #16]	; 865c <uart_can_getc+0x20>
    8648:	ebfffe77 	bl	802c <GET32>
    864c:	e2004001 	and	r4, r0, #1
    8650:	eb000266 	bl	8ff0 <dev_barrier>
    8654:	e1a00004 	mov	r0, r4
    8658:	e8bd8010 	pop	{r4, pc}
    865c:	20215064 	eorcs	r5, r1, r4, rrx

00008660 <uart_init>:
    8660:	e92d4010 	push	{r4, lr}
    8664:	eb000261 	bl	8ff0 <dev_barrier>
    8668:	e3a01002 	mov	r1, #2
    866c:	e3a0000e 	mov	r0, #14
    8670:	ebffff16 	bl	82d0 <gpio_set_function>
    8674:	e3a01002 	mov	r1, #2
    8678:	e3a0000f 	mov	r0, #15
    867c:	ebffff13 	bl	82d0 <gpio_set_function>
    8680:	eb00025a 	bl	8ff0 <dev_barrier>
    8684:	e59f4068 	ldr	r4, [pc, #104]	; 86f4 <uart_init+0x94>
    8688:	e1a00004 	mov	r0, r4
    868c:	ebfffe66 	bl	802c <GET32>
    8690:	e3801001 	orr	r1, r0, #1
    8694:	e1a00004 	mov	r0, r4
    8698:	ebfffe61 	bl	8024 <PUT32>
    869c:	eb000253 	bl	8ff0 <dev_barrier>
    86a0:	e284405c 	add	r4, r4, #92	; 0x5c
    86a4:	e3a01000 	mov	r1, #0
    86a8:	e1a00004 	mov	r0, r4
    86ac:	ebfffe5c 	bl	8024 <PUT32>
    86b0:	e3a01006 	mov	r1, #6
    86b4:	e59f003c 	ldr	r0, [pc, #60]	; 86f8 <uart_init+0x98>
    86b8:	ebfffe59 	bl	8024 <PUT32>
    86bc:	e3a01000 	mov	r1, #0
    86c0:	e59f0034 	ldr	r0, [pc, #52]	; 86fc <uart_init+0x9c>
    86c4:	ebfffe56 	bl	8024 <PUT32>
    86c8:	e59f1030 	ldr	r1, [pc, #48]	; 8700 <uart_init+0xa0>
    86cc:	e59f0030 	ldr	r0, [pc, #48]	; 8704 <uart_init+0xa4>
    86d0:	ebfffe53 	bl	8024 <PUT32>
    86d4:	e3a01003 	mov	r1, #3
    86d8:	e59f0028 	ldr	r0, [pc, #40]	; 8708 <uart_init+0xa8>
    86dc:	ebfffe50 	bl	8024 <PUT32>
    86e0:	e3a01003 	mov	r1, #3
    86e4:	e1a00004 	mov	r0, r4
    86e8:	ebfffe4d 	bl	8024 <PUT32>
    86ec:	eb00023f 	bl	8ff0 <dev_barrier>
    86f0:	e8bd8010 	pop	{r4, pc}
    86f4:	20215004 	eorcs	r5, r1, r4
    86f8:	20215048 	eorcs	r5, r1, r8, asr #32
    86fc:	20215044 	eorcs	r5, r1, r4, asr #32
    8700:	0000010e 	andeq	r0, r0, lr, lsl #2
    8704:	20215068 	eorcs	r5, r1, r8, rrx
    8708:	2021504c 	eorcs	r5, r1, ip, asr #32

0000870c <uart_getc>:
    870c:	e92d4010 	push	{r4, lr}
    8710:	eb000236 	bl	8ff0 <dev_barrier>
    8714:	ebffffc8 	bl	863c <uart_can_getc>
    8718:	e3500000 	cmp	r0, #0
    871c:	0afffffc 	beq	8714 <uart_getc+0x8>
    8720:	e59f0010 	ldr	r0, [pc, #16]	; 8738 <uart_getc+0x2c>
    8724:	ebfffe40 	bl	802c <GET32>
    8728:	e6ef4070 	uxtb	r4, r0
    872c:	eb00022f 	bl	8ff0 <dev_barrier>
    8730:	e1a00004 	mov	r0, r4
    8734:	e8bd8010 	pop	{r4, pc}
    8738:	20215040 	eorcs	r5, r1, r0, asr #32

0000873c <uart_can_putc>:
    873c:	e92d4010 	push	{r4, lr}
    8740:	eb00022a 	bl	8ff0 <dev_barrier>
    8744:	e59f0008 	ldr	r0, [pc, #8]	; 8754 <uart_can_putc+0x18>
    8748:	ebfffe37 	bl	802c <GET32>
    874c:	e2000002 	and	r0, r0, #2
    8750:	e8bd8010 	pop	{r4, pc}
    8754:	20215064 	eorcs	r5, r1, r4, rrx

00008758 <uart_putc>:
    8758:	e92d4010 	push	{r4, lr}
    875c:	e1a04000 	mov	r4, r0
    8760:	eb000222 	bl	8ff0 <dev_barrier>
    8764:	ebfffff4 	bl	873c <uart_can_putc>
    8768:	e3500000 	cmp	r0, #0
    876c:	0afffffc 	beq	8764 <uart_putc+0xc>
    8770:	e6ef1074 	uxtb	r1, r4
    8774:	e59f0008 	ldr	r0, [pc, #8]	; 8784 <uart_putc+0x2c>
    8778:	ebfffe29 	bl	8024 <PUT32>
    877c:	eb00021b 	bl	8ff0 <dev_barrier>
    8780:	e8bd8010 	pop	{r4, pc}
    8784:	20215040 	eorcs	r5, r1, r0, asr #32

00008788 <uart_has_data>:
    8788:	e92d4010 	push	{r4, lr}
    878c:	ebffffaa 	bl	863c <uart_can_getc>
    8790:	e8bd8010 	pop	{r4, pc}

00008794 <uart_getc_async>:
    8794:	e92d4010 	push	{r4, lr}
    8798:	ebfffffa 	bl	8788 <uart_has_data>
    879c:	e3500000 	cmp	r0, #0
    87a0:	0a000001 	beq	87ac <uart_getc_async+0x18>
    87a4:	ebffffd8 	bl	870c <uart_getc>
    87a8:	e8bd8010 	pop	{r4, pc}
    87ac:	e3e00000 	mvn	r0, #0
    87b0:	e8bd8010 	pop	{r4, pc}

000087b4 <uart_tx_is_empty>:
    87b4:	e92d4010 	push	{r4, lr}
    87b8:	eb00020c 	bl	8ff0 <dev_barrier>
    87bc:	e59f0014 	ldr	r0, [pc, #20]	; 87d8 <uart_tx_is_empty+0x24>
    87c0:	ebfffe19 	bl	802c <GET32>
    87c4:	e1a044a0 	lsr	r4, r0, #9
    87c8:	e2044001 	and	r4, r4, #1
    87cc:	eb000207 	bl	8ff0 <dev_barrier>
    87d0:	e1a00004 	mov	r0, r4
    87d4:	e8bd8010 	pop	{r4, pc}
    87d8:	20215064 	eorcs	r5, r1, r4, rrx

000087dc <uart_flush_tx>:
    87dc:	e92d4010 	push	{r4, lr}
    87e0:	ebfffff3 	bl	87b4 <uart_tx_is_empty>
    87e4:	e3500000 	cmp	r0, #0
    87e8:	0afffffc 	beq	87e0 <uart_flush_tx+0x4>
    87ec:	e8bd8010 	pop	{r4, pc}

000087f0 <uart_disable>:
    87f0:	e92d4010 	push	{r4, lr}
    87f4:	eb0001fd 	bl	8ff0 <dev_barrier>
    87f8:	ebfffff7 	bl	87dc <uart_flush_tx>
    87fc:	eb0001fb 	bl	8ff0 <dev_barrier>
    8800:	e59f4018 	ldr	r4, [pc, #24]	; 8820 <uart_disable+0x30>
    8804:	e1a00004 	mov	r0, r4
    8808:	ebfffe07 	bl	802c <GET32>
    880c:	e3c01001 	bic	r1, r0, #1
    8810:	e1a00004 	mov	r0, r4
    8814:	ebfffe02 	bl	8024 <PUT32>
    8818:	eb0001f4 	bl	8ff0 <dev_barrier>
    881c:	e8bd8010 	pop	{r4, pc}
    8820:	20215004 	eorcs	r5, r1, r4

00008824 <isdigit>:
    8824:	e2400030 	sub	r0, r0, #48	; 0x30
    8828:	e3500009 	cmp	r0, #9
    882c:	83a00000 	movhi	r0, #0
    8830:	93a00001 	movls	r0, #1
    8834:	e12fff1e 	bx	lr

00008838 <pad>:
    8838:	e0401001 	sub	r1, r0, r1
    883c:	e1510002 	cmp	r1, r2
    8840:	b3a03020 	movlt	r3, #32
    8844:	b4c03001 	strblt	r3, [r0], #1
    8848:	b2811001 	addlt	r1, r1, #1
    884c:	bafffffa 	blt	883c <pad+0x4>
    8850:	e3a03000 	mov	r3, #0
    8854:	e5c03000 	strb	r3, [r0]
    8858:	e12fff1e 	bx	lr

0000885c <reverse>:
    885c:	e042c003 	sub	ip, r2, r3
    8860:	e28cc001 	add	ip, ip, #1
    8864:	e15c0001 	cmp	ip, r1
    8868:	c04cc001 	subgt	ip, ip, r1
    886c:	c083300c 	addgt	r3, r3, ip
    8870:	e2421001 	sub	r1, r2, #1
    8874:	e1a02000 	mov	r2, r0
    8878:	e1510003 	cmp	r1, r3
    887c:	2451c001 	ldrbcs	ip, [r1], #-1
    8880:	24c2c001 	strbcs	ip, [r2], #1
    8884:	2afffffb 	bcs	8878 <reverse+0x1c>
    8888:	e3a03000 	mov	r3, #0
    888c:	e5c23000 	strb	r3, [r2]
    8890:	e12fff1e 	bx	lr

00008894 <emit>:
    8894:	e92d40f0 	push	{r4, r5, r6, r7, lr}
    8898:	e24dd04c 	sub	sp, sp, #76	; 0x4c
    889c:	e1a05001 	mov	r5, r1
    88a0:	e1a04002 	mov	r4, r2
    88a4:	e59d2060 	ldr	r2, [sp, #96]	; 0x60
    88a8:	e1520004 	cmp	r2, r4
    88ac:	c2442001 	subgt	r2, r4, #1
    88b0:	e1a0c003 	mov	ip, r3
    88b4:	e2400002 	sub	r0, r0, #2
    88b8:	e350000e 	cmp	r0, #14
    88bc:	979ff100 	ldrls	pc, [pc, r0, lsl #2]
    88c0:	ea000050 	b	8a08 <emit+0x174>
    88c4:	000089e0 	andeq	r8, r0, r0, ror #19
    88c8:	00008a08 	andeq	r8, r0, r8, lsl #20
    88cc:	00008a08 	andeq	r8, r0, r8, lsl #20
    88d0:	00008a08 	andeq	r8, r0, r8, lsl #20
    88d4:	00008a08 	andeq	r8, r0, r8, lsl #20
    88d8:	00008a08 	andeq	r8, r0, r8, lsl #20
    88dc:	000089d4 	ldrdeq	r8, [r0], -r4
    88e0:	00008a08 	andeq	r8, r0, r8, lsl #20
    88e4:	00008900 	andeq	r8, r0, r0, lsl #18
    88e8:	00008a08 	andeq	r8, r0, r8, lsl #20
    88ec:	00008a08 	andeq	r8, r0, r8, lsl #20
    88f0:	00008a08 	andeq	r8, r0, r8, lsl #20
    88f4:	00008a08 	andeq	r8, r0, r8, lsl #20
    88f8:	00008a08 	andeq	r8, r0, r8, lsl #20
    88fc:	00008978 	andeq	r8, r0, r8, ror r9
    8900:	e59d1064 	ldr	r1, [sp, #100]	; 0x64
    8904:	e2511000 	subs	r1, r1, #0
    8908:	13a01001 	movne	r1, #1
    890c:	e0111fa3 	ands	r1, r1, r3, lsr #31
    8910:	0a000016 	beq	8970 <emit+0xdc>
    8914:	e263c000 	rsb	ip, r3, #0
    8918:	e3a06001 	mov	r6, #1
    891c:	e28d0008 	add	r0, sp, #8
    8920:	e59f3100 	ldr	r3, [pc, #256]	; 8a28 <emit+0x194>
    8924:	e0831c93 	umull	r1, r3, r3, ip
    8928:	e1a031a3 	lsr	r3, r3, #3
    892c:	e1a0e003 	mov	lr, r3
    8930:	e0833103 	add	r3, r3, r3, lsl #2
    8934:	e04c3083 	sub	r3, ip, r3, lsl #1
    8938:	e1a01000 	mov	r1, r0
    893c:	e2800001 	add	r0, r0, #1
    8940:	e59f70e4 	ldr	r7, [pc, #228]	; 8a2c <emit+0x198>
    8944:	e7d73003 	ldrb	r3, [r7, r3]
    8948:	e5c13000 	strb	r3, [r1]
    894c:	e1a0300c 	mov	r3, ip
    8950:	e1a0c00e 	mov	ip, lr
    8954:	e3530009 	cmp	r3, #9
    8958:	8afffff0 	bhi	8920 <emit+0x8c>
    895c:	e3560000 	cmp	r6, #0
    8960:	13a0302d 	movne	r3, #45	; 0x2d
    8964:	15c03000 	strbne	r3, [r0]
    8968:	12810002 	addne	r0, r1, #2
    896c:	ea00000f 	b	89b0 <emit+0x11c>
    8970:	e3a06000 	mov	r6, #0
    8974:	eaffffe8 	b	891c <emit+0x88>
    8978:	e28d1008 	add	r1, sp, #8
    897c:	e20c000f 	and	r0, ip, #15
    8980:	e59fe0a8 	ldr	lr, [pc, #168]	; 8a30 <emit+0x19c>
    8984:	e7de0000 	ldrb	r0, [lr, r0]
    8988:	e5c10000 	strb	r0, [r1]
    898c:	e2811001 	add	r1, r1, #1
    8990:	e35c000f 	cmp	ip, #15
    8994:	e1a0c22c 	lsr	ip, ip, #4
    8998:	8afffff7 	bhi	897c <emit+0xe8>
    899c:	e1a00001 	mov	r0, r1
    89a0:	e3a03078 	mov	r3, #120	; 0x78
    89a4:	e4c03002 	strb	r3, [r0], #2
    89a8:	e3a03030 	mov	r3, #48	; 0x30
    89ac:	e5c13001 	strb	r3, [r1, #1]
    89b0:	e28d1008 	add	r1, sp, #8
    89b4:	ebffff9f 	bl	8838 <pad>
    89b8:	e1a02000 	mov	r2, r0
    89bc:	e28d3008 	add	r3, sp, #8
    89c0:	e1a01004 	mov	r1, r4
    89c4:	e1a00005 	mov	r0, r5
    89c8:	ebffffa3 	bl	885c <reverse>
    89cc:	e28dd04c 	add	sp, sp, #76	; 0x4c
    89d0:	e8bd80f0 	pop	{r4, r5, r6, r7, pc}
    89d4:	e5cd3008 	strb	r3, [sp, #8]
    89d8:	e28d0009 	add	r0, sp, #9
    89dc:	eafffff3 	b	89b0 <emit+0x11c>
    89e0:	e28d0008 	add	r0, sp, #8
    89e4:	e20c1001 	and	r1, ip, #1
    89e8:	e59fe044 	ldr	lr, [pc, #68]	; 8a34 <emit+0x1a0>
    89ec:	e7de1001 	ldrb	r1, [lr, r1]
    89f0:	e5c01000 	strb	r1, [r0]
    89f4:	e2800001 	add	r0, r0, #1
    89f8:	e35c0001 	cmp	ip, #1
    89fc:	e1a0c0ac 	lsr	ip, ip, #1
    8a00:	8afffff7 	bhi	89e4 <emit+0x150>
    8a04:	eaffffe9 	b	89b0 <emit+0x11c>
    8a08:	e59f3028 	ldr	r3, [pc, #40]	; 8a38 <emit+0x1a4>
    8a0c:	e58d3000 	str	r3, [sp]
    8a10:	e3a03079 	mov	r3, #121	; 0x79
    8a14:	e59f2020 	ldr	r2, [pc, #32]	; 8a3c <emit+0x1a8>
    8a18:	e59f1020 	ldr	r1, [pc, #32]	; 8a40 <emit+0x1ac>
    8a1c:	e59f0020 	ldr	r0, [pc, #32]	; 8a44 <emit+0x1b0>
    8a20:	ebfffe76 	bl	8400 <printk>
    8a24:	ebfffea7 	bl	84c8 <clean_reboot>
    8a28:	cccccccd 	stclgt	12, cr12, [ip], {205}	; 0xcd
    8a2c:	00009120 	andeq	r9, r0, r0, lsr #2
    8a30:	0000912c 	andeq	r9, r0, ip, lsr #2
    8a34:	00009140 	andeq	r9, r0, r0, asr #2
    8a38:	0000911c 	andeq	r9, r0, ip, lsl r1
    8a3c:	0000923c 	andeq	r9, r0, ip, lsr r2
    8a40:	000090f4 	strdeq	r9, [r0], -r4
    8a44:	00009108 	andeq	r9, r0, r8, lsl #2

00008a48 <rpi_set_output>:
    8a48:	e3500000 	cmp	r0, #0
    8a4c:	0a000006 	beq	8a6c <rpi_set_output+0x24>
    8a50:	e59f303c 	ldr	r3, [pc, #60]	; 8a94 <rpi_set_output+0x4c>
    8a54:	e5830000 	str	r0, [r3]
    8a58:	e3510000 	cmp	r1, #0
    8a5c:	012fff1e 	bxeq	lr
    8a60:	e59f3030 	ldr	r3, [pc, #48]	; 8a98 <rpi_set_output+0x50>
    8a64:	e5831000 	str	r1, [r3]
    8a68:	e12fff1e 	bx	lr
    8a6c:	e52de004 	push	{lr}		; (str lr, [sp, #-4]!)
    8a70:	e24dd00c 	sub	sp, sp, #12
    8a74:	e59f3020 	ldr	r3, [pc, #32]	; 8a9c <rpi_set_output+0x54>
    8a78:	e58d3000 	str	r3, [sp]
    8a7c:	e3a03020 	mov	r3, #32
    8a80:	e59f2018 	ldr	r2, [pc, #24]	; 8aa0 <rpi_set_output+0x58>
    8a84:	e59f1018 	ldr	r1, [pc, #24]	; 8aa4 <rpi_set_output+0x5c>
    8a88:	e59f0018 	ldr	r0, [pc, #24]	; 8aa8 <rpi_set_output+0x60>
    8a8c:	ebfffe5b 	bl	8400 <printk>
    8a90:	ebfffe8c 	bl	84c8 <clean_reboot>
    8a94:	00009264 	andeq	r9, r0, r4, ror #4
    8a98:	00009260 	andeq	r9, r0, r0, ror #4
    8a9c:	00009144 	andeq	r9, r0, r4, asr #2
    8aa0:	00009244 	andeq	r9, r0, r4, asr #4
    8aa4:	000090f4 	strdeq	r9, [r0], -r4
    8aa8:	00009108 	andeq	r9, r0, r8, lsl #2

00008aac <va_printk>:
    8aac:	e92d4ff0 	push	{r4, r5, r6, r7, r8, r9, sl, fp, lr}
    8ab0:	e24ddf45 	sub	sp, sp, #276	; 0x114
    8ab4:	e1a09000 	mov	r9, r0
    8ab8:	e58d2008 	str	r2, [sp, #8]
    8abc:	e58d300c 	str	r3, [sp, #12]
    8ac0:	e2411001 	sub	r1, r1, #1
    8ac4:	e0808001 	add	r8, r0, r1
    8ac8:	e3a03000 	mov	r3, #0
    8acc:	e5c03000 	strb	r3, [r0]
    8ad0:	e1a04000 	mov	r4, r0
    8ad4:	e1a06002 	mov	r6, r2
    8ad8:	ea000001 	b	8ae4 <va_printk+0x38>
    8adc:	e2866001 	add	r6, r6, #1
    8ae0:	e4c43001 	strb	r3, [r4], #1
    8ae4:	e5d63000 	ldrb	r3, [r6]
    8ae8:	e3530000 	cmp	r3, #0
    8aec:	0a000102 	beq	8efc <va_printk+0x450>
    8af0:	e1540008 	cmp	r4, r8
    8af4:	2a000100 	bcs	8efc <va_printk+0x450>
    8af8:	e3530025 	cmp	r3, #37	; 0x25
    8afc:	1afffff6 	bne	8adc <va_printk+0x30>
    8b00:	e5d62001 	ldrb	r2, [r6, #1]
    8b04:	e3520025 	cmp	r2, #37	; 0x25
    8b08:	04c43001 	strbeq	r3, [r4], #1
    8b0c:	02866002 	addeq	r6, r6, #2
    8b10:	0afffff3 	beq	8ae4 <va_printk+0x38>
    8b14:	e2866001 	add	r6, r6, #1
    8b18:	e3a05000 	mov	r5, #0
    8b1c:	e5d67000 	ldrb	r7, [r6]
    8b20:	e1a0a007 	mov	sl, r7
    8b24:	e1a00007 	mov	r0, r7
    8b28:	ebffff3d 	bl	8824 <isdigit>
    8b2c:	e3500000 	cmp	r0, #0
    8b30:	0a000004 	beq	8b48 <va_printk+0x9c>
    8b34:	e0855105 	add	r5, r5, r5, lsl #2
    8b38:	e0875085 	add	r5, r7, r5, lsl #1
    8b3c:	e2455030 	sub	r5, r5, #48	; 0x30
    8b40:	e2866001 	add	r6, r6, #1
    8b44:	eafffff4 	b	8b1c <va_printk+0x70>
    8b48:	e355001f 	cmp	r5, #31
    8b4c:	8a00001a 	bhi	8bbc <va_printk+0x110>
    8b50:	e2477062 	sub	r7, r7, #98	; 0x62
    8b54:	e3570016 	cmp	r7, #22
    8b58:	979ff107 	ldrls	pc, [pc, r7, lsl #2]
    8b5c:	ea0000ce 	b	8e9c <va_printk+0x3f0>
    8b60:	00008e20 	andeq	r8, r0, r0, lsr #28
    8b64:	00008e68 	andeq	r8, r0, r8, ror #28
    8b68:	00008d80 	andeq	r8, r0, r0, lsl #27
    8b6c:	00008e9c 	muleq	r0, ip, lr
    8b70:	00008d68 	andeq	r8, r0, r8, ror #26
    8b74:	00008e9c 	muleq	r0, ip, lr
    8b78:	00008e9c 	muleq	r0, ip, lr
    8b7c:	00008e9c 	muleq	r0, ip, lr
    8b80:	00008e9c 	muleq	r0, ip, lr
    8b84:	00008e9c 	muleq	r0, ip, lr
    8b88:	00008bdc 	ldrdeq	r8, [r0], -ip
    8b8c:	00008e9c 	muleq	r0, ip, lr
    8b90:	00008e9c 	muleq	r0, ip, lr
    8b94:	00008e9c 	muleq	r0, ip, lr
    8b98:	00008dec 	andeq	r8, r0, ip, ror #27
    8b9c:	00008e9c 	muleq	r0, ip, lr
    8ba0:	00008e9c 	muleq	r0, ip, lr
    8ba4:	00008e54 	andeq	r8, r0, r4, asr lr
    8ba8:	00008e9c 	muleq	r0, ip, lr
    8bac:	00008db8 			; <UNDEFINED> instruction: 0x00008db8
    8bb0:	00008e9c 	muleq	r0, ip, lr
    8bb4:	00008e9c 	muleq	r0, ip, lr
    8bb8:	00008dec 	andeq	r8, r0, ip, ror #27
    8bbc:	e59f334c 	ldr	r3, [pc, #844]	; 8f10 <va_printk+0x464>
    8bc0:	e58d3000 	str	r3, [sp]
    8bc4:	e3a03098 	mov	r3, #152	; 0x98
    8bc8:	e59f2344 	ldr	r2, [pc, #836]	; 8f14 <va_printk+0x468>
    8bcc:	e59f1344 	ldr	r1, [pc, #836]	; 8f18 <va_printk+0x46c>
    8bd0:	e59f0344 	ldr	r0, [pc, #836]	; 8f1c <va_printk+0x470>
    8bd4:	ebfffe09 	bl	8400 <printk>
    8bd8:	ebfffe3a 	bl	84c8 <clean_reboot>
    8bdc:	e3a02003 	mov	r2, #3
    8be0:	e59f1338 	ldr	r1, [pc, #824]	; 8f20 <va_printk+0x474>
    8be4:	e1a00006 	mov	r0, r6
    8be8:	eb0000f5 	bl	8fc4 <strncmp>
    8bec:	e3500000 	cmp	r0, #0
    8bf0:	0a000005 	beq	8c0c <va_printk+0x160>
    8bf4:	e3a02003 	mov	r2, #3
    8bf8:	e59f1324 	ldr	r1, [pc, #804]	; 8f24 <va_printk+0x478>
    8bfc:	e1a00006 	mov	r0, r6
    8c00:	eb0000ef 	bl	8fc4 <strncmp>
    8c04:	e3500000 	cmp	r0, #0
    8c08:	1a00002d 	bne	8cc4 <va_printk+0x218>
    8c0c:	e286b002 	add	fp, r6, #2
    8c10:	e59d300c 	ldr	r3, [sp, #12]
    8c14:	e2833007 	add	r3, r3, #7
    8c18:	e3c33007 	bic	r3, r3, #7
    8c1c:	e2832008 	add	r2, r3, #8
    8c20:	e58d200c 	str	r2, [sp, #12]
    8c24:	e593a000 	ldr	sl, [r3]
    8c28:	e5937004 	ldr	r7, [r3, #4]
    8c2c:	e3a02003 	mov	r2, #3
    8c30:	e59f12e8 	ldr	r1, [pc, #744]	; 8f20 <va_printk+0x474>
    8c34:	e1a00006 	mov	r0, r6
    8c38:	eb0000e1 	bl	8fc4 <strncmp>
    8c3c:	e3500000 	cmp	r0, #0
    8c40:	0a000027 	beq	8ce4 <va_printk+0x238>
    8c44:	e3a02003 	mov	r2, #3
    8c48:	e59f12d4 	ldr	r1, [pc, #724]	; 8f24 <va_printk+0x478>
    8c4c:	e1a00006 	mov	r0, r6
    8c50:	eb0000db 	bl	8fc4 <strncmp>
    8c54:	e3500000 	cmp	r0, #0
    8c58:	1a00003b 	bne	8d4c <va_printk+0x2a0>
    8c5c:	e3a06000 	mov	r6, #0
    8c60:	e58d6004 	str	r6, [sp, #4]
    8c64:	e58d5000 	str	r5, [sp]
    8c68:	e1a03007 	mov	r3, r7
    8c6c:	e3a02080 	mov	r2, #128	; 0x80
    8c70:	e28d1010 	add	r1, sp, #16
    8c74:	e3a0000a 	mov	r0, #10
    8c78:	ebffff05 	bl	8894 <emit>
    8c7c:	e1a07000 	mov	r7, r0
    8c80:	e58d6004 	str	r6, [sp, #4]
    8c84:	e58d5000 	str	r5, [sp]
    8c88:	e1a0300a 	mov	r3, sl
    8c8c:	e3a02080 	mov	r2, #128	; 0x80
    8c90:	e28d1090 	add	r1, sp, #144	; 0x90
    8c94:	e3a0000a 	mov	r0, #10
    8c98:	ebfffefd 	bl	8894 <emit>
    8c9c:	e59f1284 	ldr	r1, [pc, #644]	; 8f28 <va_printk+0x47c>
    8ca0:	e28d0010 	add	r0, sp, #16
    8ca4:	eb0000a6 	bl	8f44 <strcmp>
    8ca8:	e1500006 	cmp	r0, r6
    8cac:	1a000021 	bne	8d38 <va_printk+0x28c>
    8cb0:	e28d1090 	add	r1, sp, #144	; 0x90
    8cb4:	e28d0010 	add	r0, sp, #16
    8cb8:	eb0000ac 	bl	8f70 <strcpy>
    8cbc:	e1a0600b 	mov	r6, fp
    8cc0:	ea00003a 	b	8db0 <va_printk+0x304>
    8cc4:	e59f3260 	ldr	r3, [pc, #608]	; 8f2c <va_printk+0x480>
    8cc8:	e58d3000 	str	r3, [sp]
    8ccc:	e3a0309f 	mov	r3, #159	; 0x9f
    8cd0:	e59f223c 	ldr	r2, [pc, #572]	; 8f14 <va_printk+0x468>
    8cd4:	e59f123c 	ldr	r1, [pc, #572]	; 8f18 <va_printk+0x46c>
    8cd8:	e59f023c 	ldr	r0, [pc, #572]	; 8f1c <va_printk+0x470>
    8cdc:	ebfffdc7 	bl	8400 <printk>
    8ce0:	ebfffdf8 	bl	84c8 <clean_reboot>
    8ce4:	e3a06000 	mov	r6, #0
    8ce8:	e58d6004 	str	r6, [sp, #4]
    8cec:	e58d5000 	str	r5, [sp]
    8cf0:	e1a03007 	mov	r3, r7
    8cf4:	e3a02080 	mov	r2, #128	; 0x80
    8cf8:	e28d1010 	add	r1, sp, #16
    8cfc:	e3a00010 	mov	r0, #16
    8d00:	ebfffee3 	bl	8894 <emit>
    8d04:	e1a07000 	mov	r7, r0
    8d08:	e58d6004 	str	r6, [sp, #4]
    8d0c:	e58d5000 	str	r5, [sp]
    8d10:	e1a0300a 	mov	r3, sl
    8d14:	e3a02080 	mov	r2, #128	; 0x80
    8d18:	e28d1090 	add	r1, sp, #144	; 0x90
    8d1c:	e3a00010 	mov	r0, #16
    8d20:	ebfffedb 	bl	8894 <emit>
    8d24:	e28d1092 	add	r1, sp, #146	; 0x92
    8d28:	e28d0010 	add	r0, sp, #16
    8d2c:	eb000097 	bl	8f90 <strcat>
    8d30:	e1a0600b 	mov	r6, fp
    8d34:	ea00001d 	b	8db0 <va_printk+0x304>
    8d38:	e28d1090 	add	r1, sp, #144	; 0x90
    8d3c:	e28d0010 	add	r0, sp, #16
    8d40:	eb000092 	bl	8f90 <strcat>
    8d44:	e1a0600b 	mov	r6, fp
    8d48:	ea000018 	b	8db0 <va_printk+0x304>
    8d4c:	e58d6000 	str	r6, [sp]
    8d50:	e3a030b6 	mov	r3, #182	; 0xb6
    8d54:	e59f21b8 	ldr	r2, [pc, #440]	; 8f14 <va_printk+0x468>
    8d58:	e59f11b8 	ldr	r1, [pc, #440]	; 8f18 <va_printk+0x46c>
    8d5c:	e59f01cc 	ldr	r0, [pc, #460]	; 8f30 <va_printk+0x484>
    8d60:	ebfffda6 	bl	8400 <printk>
    8d64:	ebfffdd7 	bl	84c8 <clean_reboot>
    8d68:	e3a030be 	mov	r3, #190	; 0xbe
    8d6c:	e59f21a0 	ldr	r2, [pc, #416]	; 8f14 <va_printk+0x468>
    8d70:	e59f11a0 	ldr	r1, [pc, #416]	; 8f18 <va_printk+0x46c>
    8d74:	e59f01b8 	ldr	r0, [pc, #440]	; 8f34 <va_printk+0x488>
    8d78:	ebfffda0 	bl	8400 <printk>
    8d7c:	ebfffdd1 	bl	84c8 <clean_reboot>
    8d80:	e59d300c 	ldr	r3, [sp, #12]
    8d84:	e2832004 	add	r2, r3, #4
    8d88:	e58d200c 	str	r2, [sp, #12]
    8d8c:	e5933000 	ldr	r3, [r3]
    8d90:	e3a02001 	mov	r2, #1
    8d94:	e58d2004 	str	r2, [sp, #4]
    8d98:	e58d5000 	str	r5, [sp]
    8d9c:	e3a02080 	mov	r2, #128	; 0x80
    8da0:	e28d1010 	add	r1, sp, #16
    8da4:	e3a0000a 	mov	r0, #10
    8da8:	ebfffeb9 	bl	8894 <emit>
    8dac:	e1a07000 	mov	r7, r0
    8db0:	e2866001 	add	r6, r6, #1
    8db4:	ea00004a 	b	8ee4 <va_printk+0x438>
    8db8:	e59d300c 	ldr	r3, [sp, #12]
    8dbc:	e2832004 	add	r2, r3, #4
    8dc0:	e58d200c 	str	r2, [sp, #12]
    8dc4:	e5933000 	ldr	r3, [r3]
    8dc8:	e3a02000 	mov	r2, #0
    8dcc:	e58d2004 	str	r2, [sp, #4]
    8dd0:	e58d5000 	str	r5, [sp]
    8dd4:	e3a02080 	mov	r2, #128	; 0x80
    8dd8:	e28d1010 	add	r1, sp, #16
    8ddc:	e3a0000a 	mov	r0, #10
    8de0:	ebfffeab 	bl	8894 <emit>
    8de4:	e1a07000 	mov	r7, r0
    8de8:	eafffff0 	b	8db0 <va_printk+0x304>
    8dec:	e59d300c 	ldr	r3, [sp, #12]
    8df0:	e2832004 	add	r2, r3, #4
    8df4:	e58d200c 	str	r2, [sp, #12]
    8df8:	e5933000 	ldr	r3, [r3]
    8dfc:	e3a02000 	mov	r2, #0
    8e00:	e58d2004 	str	r2, [sp, #4]
    8e04:	e58d5000 	str	r5, [sp]
    8e08:	e3a02080 	mov	r2, #128	; 0x80
    8e0c:	e28d1010 	add	r1, sp, #16
    8e10:	e3a00010 	mov	r0, #16
    8e14:	ebfffe9e 	bl	8894 <emit>
    8e18:	e1a07000 	mov	r7, r0
    8e1c:	eaffffe3 	b	8db0 <va_printk+0x304>
    8e20:	e59d300c 	ldr	r3, [sp, #12]
    8e24:	e2832004 	add	r2, r3, #4
    8e28:	e58d200c 	str	r2, [sp, #12]
    8e2c:	e5933000 	ldr	r3, [r3]
    8e30:	e3a02000 	mov	r2, #0
    8e34:	e58d2004 	str	r2, [sp, #4]
    8e38:	e58d5000 	str	r5, [sp]
    8e3c:	e3a02080 	mov	r2, #128	; 0x80
    8e40:	e28d1010 	add	r1, sp, #16
    8e44:	e3a00002 	mov	r0, #2
    8e48:	ebfffe91 	bl	8894 <emit>
    8e4c:	e1a07000 	mov	r7, r0
    8e50:	eaffffd6 	b	8db0 <va_printk+0x304>
    8e54:	e59d300c 	ldr	r3, [sp, #12]
    8e58:	e2832004 	add	r2, r3, #4
    8e5c:	e58d200c 	str	r2, [sp, #12]
    8e60:	e5937000 	ldr	r7, [r3]
    8e64:	eaffffd1 	b	8db0 <va_printk+0x304>
    8e68:	e59d300c 	ldr	r3, [sp, #12]
    8e6c:	e2832004 	add	r2, r3, #4
    8e70:	e58d200c 	str	r2, [sp, #12]
    8e74:	e5933000 	ldr	r3, [r3]
    8e78:	e3a02000 	mov	r2, #0
    8e7c:	e58d2004 	str	r2, [sp, #4]
    8e80:	e58d5000 	str	r5, [sp]
    8e84:	e3a02080 	mov	r2, #128	; 0x80
    8e88:	e28d1010 	add	r1, sp, #16
    8e8c:	e3a00008 	mov	r0, #8
    8e90:	ebfffe7f 	bl	8894 <emit>
    8e94:	e1a07000 	mov	r7, r0
    8e98:	eaffffc4 	b	8db0 <va_printk+0x304>
    8e9c:	e3a03000 	mov	r3, #0
    8ea0:	e5c63001 	strb	r3, [r6, #1]
    8ea4:	e1a0200a 	mov	r2, sl
    8ea8:	e1a0100a 	mov	r1, sl
    8eac:	e59f0084 	ldr	r0, [pc, #132]	; 8f38 <va_printk+0x48c>
    8eb0:	ebfffd52 	bl	8400 <printk>
    8eb4:	e59f3080 	ldr	r3, [pc, #128]	; 8f3c <va_printk+0x490>
    8eb8:	e5933000 	ldr	r3, [r3]
    8ebc:	e59d0008 	ldr	r0, [sp, #8]
    8ec0:	e12fff33 	blx	r3
    8ec4:	e3a030e2 	mov	r3, #226	; 0xe2
    8ec8:	e59f2044 	ldr	r2, [pc, #68]	; 8f14 <va_printk+0x468>
    8ecc:	e59f1044 	ldr	r1, [pc, #68]	; 8f18 <va_printk+0x46c>
    8ed0:	e59f0068 	ldr	r0, [pc, #104]	; 8f40 <va_printk+0x494>
    8ed4:	ebfffd49 	bl	8400 <printk>
    8ed8:	ebfffd7a 	bl	84c8 <clean_reboot>
    8edc:	e2877001 	add	r7, r7, #1
    8ee0:	e4c43001 	strb	r3, [r4], #1
    8ee4:	e1540008 	cmp	r4, r8
    8ee8:	2afffefd 	bcs	8ae4 <va_printk+0x38>
    8eec:	e5d73000 	ldrb	r3, [r7]
    8ef0:	e3530000 	cmp	r3, #0
    8ef4:	1afffff8 	bne	8edc <va_printk+0x430>
    8ef8:	eafffef9 	b	8ae4 <va_printk+0x38>
    8efc:	e3a03000 	mov	r3, #0
    8f00:	e4c43001 	strb	r3, [r4], #1
    8f04:	e0440009 	sub	r0, r4, r9
    8f08:	e28ddf45 	add	sp, sp, #276	; 0x114
    8f0c:	e8bd8ff0 	pop	{r4, r5, r6, r7, r8, r9, sl, fp, pc}
    8f10:	0000914c 	andeq	r9, r0, ip, asr #2
    8f14:	00009254 	andeq	r9, r0, r4, asr r2
    8f18:	000090f4 	strdeq	r9, [r0], -r4
    8f1c:	00009108 	andeq	r9, r0, r8, lsl #2
    8f20:	00009158 	andeq	r9, r0, r8, asr r1
    8f24:	0000915c 	andeq	r9, r0, ip, asr r1
    8f28:	0000911c 	andeq	r9, r0, ip, lsl r1
    8f2c:	00009160 	andeq	r9, r0, r0, ror #2
    8f30:	0000919c 	muleq	r0, ip, r1
    8f34:	000091c4 	andeq	r9, r0, r4, asr #3
    8f38:	000091ec 	andeq	r9, r0, ip, ror #3
    8f3c:	00009260 	andeq	r9, r0, r0, ror #4
    8f40:	0000921c 	andeq	r9, r0, ip, lsl r2

00008f44 <strcmp>:
    8f44:	e5d03000 	ldrb	r3, [r0]
    8f48:	e3530000 	cmp	r3, #0
    8f4c:	0a000004 	beq	8f64 <strcmp+0x20>
    8f50:	e5d12000 	ldrb	r2, [r1]
    8f54:	e1530002 	cmp	r3, r2
    8f58:	02800001 	addeq	r0, r0, #1
    8f5c:	02811001 	addeq	r1, r1, #1
    8f60:	0afffff7 	beq	8f44 <strcmp>
    8f64:	e5d10000 	ldrb	r0, [r1]
    8f68:	e0430000 	sub	r0, r3, r0
    8f6c:	e12fff1e 	bx	lr

00008f70 <strcpy>:
    8f70:	e1a0c000 	mov	ip, r0
    8f74:	e5d12000 	ldrb	r2, [r1]
    8f78:	e2811001 	add	r1, r1, #1
    8f7c:	e5cc2000 	strb	r2, [ip]
    8f80:	e28cc001 	add	ip, ip, #1
    8f84:	e3520000 	cmp	r2, #0
    8f88:	1afffff9 	bne	8f74 <strcpy+0x4>
    8f8c:	e12fff1e 	bx	lr

00008f90 <strcat>:
    8f90:	e1a02000 	mov	r2, r0
    8f94:	e1a03002 	mov	r3, r2
    8f98:	e2822001 	add	r2, r2, #1
    8f9c:	e5d3c000 	ldrb	ip, [r3]
    8fa0:	e35c0000 	cmp	ip, #0
    8fa4:	1afffffa 	bne	8f94 <strcat+0x4>
    8fa8:	e2433001 	sub	r3, r3, #1
    8fac:	e5d12000 	ldrb	r2, [r1]
    8fb0:	e2811001 	add	r1, r1, #1
    8fb4:	e5e32001 	strb	r2, [r3, #1]!
    8fb8:	e3520000 	cmp	r2, #0
    8fbc:	1afffffa 	bne	8fac <strcat+0x1c>
    8fc0:	e12fff1e 	bx	lr

00008fc4 <strncmp>:
    8fc4:	e3520000 	cmp	r2, #0
    8fc8:	e2422001 	sub	r2, r2, #1
    8fcc:	0a000005 	beq	8fe8 <strncmp+0x24>
    8fd0:	e4d03001 	ldrb	r3, [r0], #1
    8fd4:	e4d1c001 	ldrb	ip, [r1], #1
    8fd8:	e153000c 	cmp	r3, ip
    8fdc:	0afffff8 	beq	8fc4 <strncmp>
    8fe0:	e043000c 	sub	r0, r3, ip
    8fe4:	e12fff1e 	bx	lr
    8fe8:	e3a00000 	mov	r0, #0
    8fec:	e12fff1e 	bx	lr

00008ff0 <dev_barrier>:
    8ff0:	ea000002 	b	9000 <dsb>

00008ff4 <dmb>:
    8ff4:	e3a00000 	mov	r0, #0
    8ff8:	ee070fba 	mcr	15, 0, r0, cr7, cr10, {5}
    8ffc:	e12fff1e 	bx	lr

00009000 <dsb>:
    9000:	ee070f9a 	mcr	15, 0, r0, cr7, cr10, {4}
    9004:	e12fff1e 	bx	lr

Disassembly of section .rodata:

00009008 <__FUNCTION__.4027-0xc8>:
    9008:	6761746a 	strbvs	r7, [r1, -sl, ror #8]!
    900c:	0000632e 	andeq	r6, r0, lr, lsr #6
    9010:	494e4150 	stmdbmi	lr, {r4, r6, r8, lr}^
    9014:	73253a43 			; <UNDEFINED> instruction: 0x73253a43
    9018:	3a73253a 	bcc	1cd2508 <__bss_end__+0x1cc8ea0>
    901c:	693a6425 	ldmdbvs	sl!, {r0, r2, r5, sl, sp, lr}
    9020:	656c706d 	strbvs	r7, [ip, #-109]!	; 0xffffff93
    9024:	746e656d 	strbtvc	r6, [lr], #-1389	; 0xfffffa93
    9028:	69687420 	stmdbvs	r8!, {r5, sl, ip, sp, lr}^
    902c:	75662073 	strbvc	r2, [r6, #-115]!	; 0xffffff8d
    9030:	6974636e 	ldmdbvs	r4!, {r1, r2, r3, r5, r6, r8, r9, sp, lr}^
    9034:	0a216e6f 	beq	8649f8 <__bss_end__+0x85b390>
    9038:	0000000a 	andeq	r0, r0, sl
    903c:	74746553 	ldrbtvc	r6, [r4], #-1363	; 0xfffffaad
    9040:	20676e69 	rsbcs	r6, r7, r9, ror #28
    9044:	65646f6d 	strbvs	r6, [r4, #-3949]!	; 0xfffff093
    9048:	00000a2e 	andeq	r0, r0, lr, lsr #20
    904c:	646e6553 	strbtvs	r6, [lr], #-1363	; 0xfffffaad
    9050:	20676e69 	rsbcs	r6, r7, r9, ror #28
    9054:	5041544d 	subpl	r5, r1, sp, asr #8
    9058:	5f57535f 	svcpl	0x0057535f
    905c:	5041544d 	subpl	r5, r1, sp, asr #8
    9060:	6d6f6320 	stclvs	3, cr6, [pc, #-128]!	; 8fe8 <strncmp+0x24>
    9064:	646e616d 	strbtvs	r6, [lr], #-365	; 0xfffffe93
    9068:	00000a2e 	andeq	r0, r0, lr, lsr #20
    906c:	646e6553 	strbtvs	r6, [lr], #-1363	; 0xfffffaad
    9070:	20676e69 	rsbcs	r6, r7, r9, ror #28
    9074:	5041544d 	subpl	r5, r1, sp, asr #8
    9078:	4d4f435f 	stclmi	3, cr4, [pc, #-380]	; 8f04 <va_printk+0x458>
    907c:	444e414d 	strbmi	r4, [lr], #-333	; 0xfffffeb3
    9080:	6d6f6320 	stclvs	3, cr6, [pc, #-128]!	; 9008 <__code_end__>
    9084:	646e616d 	strbtvs	r6, [lr], #-365	; 0xfffffe93
    9088:	00000a2e 	andeq	r0, r0, lr, lsr #20
    908c:	756f6241 	strbvc	r6, [pc, #-577]!	; 8e53 <va_printk+0x3a7>
    9090:	6f742074 	svcvs	0x00742074
    9094:	61657220 	cmnvs	r5, r0, lsr #4
    9098:	65642064 	strbvs	r2, [r4, #-100]!	; 0xffffff9c
    909c:	65636976 	strbvs	r6, [r3, #-2422]!	; 0xfffff68a
    90a0:	61747320 	cmnvs	r4, r0, lsr #6
    90a4:	2e737574 	mrccs	5, 3, r7, cr3, cr4, {3}
    90a8:	0000000a 	andeq	r0, r0, sl
    90ac:	63656843 	cmnvs	r5, #4390912	; 0x430000
    90b0:	2064656b 	rsbcs	r6, r4, fp, ror #10
    90b4:	69766564 	ldmdbvs	r6!, {r2, r5, r6, r8, sl, sp, lr}^
    90b8:	73206563 			; <UNDEFINED> instruction: 0x73206563
    90bc:	75746174 	ldrbvc	r6, [r4, #-372]!	; 0xfffffe8c
    90c0:	53202173 			; <UNDEFINED> instruction: 0x53202173
    90c4:	75746174 	ldrbvc	r6, [r4, #-372]!	; 0xfffffe8c
    90c8:	25203a73 	strcs	r3, [r0, #-2675]!	; 0xfffff58d
    90cc:	00000a62 	andeq	r0, r0, r2, ror #20

000090d0 <__FUNCTION__.4027>:
    90d0:	65746e65 	ldrbvs	r6, [r4, #-3685]!	; 0xfffff19b
    90d4:	72705f72 	rsbsvc	r5, r0, #456	; 0x1c8
    90d8:	6172676f 	cmnvs	r2, pc, ror #14
    90dc:	6e696d6d 	cdpvs	13, 6, cr6, cr9, cr13, {3}
    90e0:	6f6d5f67 	svcvs	0x006d5f67
    90e4:	00006564 	andeq	r6, r0, r4, ror #10
    90e8:	454e4f44 	strbmi	r4, [lr, #-3908]	; 0xfffff0bc
    90ec:	0a212121 	beq	851578 <__bss_end__+0x847f10>
    90f0:	00000000 	andeq	r0, r0, r0
    90f4:	696c2f2e 	stmdbvs	ip!, {r1, r2, r3, r5, r8, r9, sl, fp, sp}^
    90f8:	762f6362 	strtvc	r6, [pc], -r2, ror #6
    90fc:	72702d61 	rsbsvc	r2, r0, #6208	; 0x1840
    9100:	6b746e69 	blvs	1d24aac <__bss_end__+0x1d1b444>
    9104:	0000632e 	andeq	r6, r0, lr, lsr #6
    9108:	494e4150 	stmdbmi	lr, {r4, r6, r8, lr}^
    910c:	73253a43 			; <UNDEFINED> instruction: 0x73253a43
    9110:	3a73253a 	bcc	1cd2600 <__bss_end__+0x1cc8f98>
    9114:	253a6425 	ldrcs	r6, [sl, #-1061]!	; 0xfffffbdb
    9118:	00000a73 	andeq	r0, r0, r3, ror sl
    911c:	00000030 	andeq	r0, r0, r0, lsr r0
    9120:	33323130 	teqcc	r2, #48, 2
    9124:	37363534 			; <UNDEFINED> instruction: 0x37363534
    9128:	00003938 	andeq	r3, r0, r8, lsr r9
    912c:	33323130 	teqcc	r2, #48, 2
    9130:	37363534 			; <UNDEFINED> instruction: 0x37363534
    9134:	62613938 	rsbvs	r3, r1, #56, 18	; 0xe0000
    9138:	66656463 	strbtvs	r6, [r5], -r3, ror #8
    913c:	00000000 	andeq	r0, r0, r0
    9140:	00003130 	andeq	r3, r0, r0, lsr r1
    9144:	63747570 	cmnvs	r4, #112, 10	; 0x1c000000
    9148:	0070665f 	rsbseq	r6, r0, pc, asr r6
    914c:	74646977 	strbtvc	r6, [r4], #-2423	; 0xfffff689
    9150:	203c2068 	eorscs	r2, ip, r8, rrx
    9154:	00003233 	andeq	r3, r0, r3, lsr r2
    9158:	00786c6c 	rsbseq	r6, r8, ip, ror #24
    915c:	00646c6c 	rsbeq	r6, r4, ip, ror #24
    9160:	6e727473 	mrcvs	4, 3, r7, cr2, cr3, {3}
    9164:	28706d63 	ldmdacs	r0!, {r0, r1, r5, r6, r8, sl, fp, sp, lr}^
    9168:	202c7974 	eorcs	r7, ip, r4, ror r9
    916c:	786c6c22 	stmdavc	ip!, {r1, r5, sl, fp, sp, lr}^
    9170:	33202c22 			; <UNDEFINED> instruction: 0x33202c22
    9174:	3d3d2029 	ldccc	0, cr2, [sp, #-164]!	; 0xffffff5c
    9178:	7c203020 	stcvc	0, cr3, [r0], #-128	; 0xffffff80
    917c:	7473207c 	ldrbtvc	r2, [r3], #-124	; 0xffffff84
    9180:	6d636e72 	stclvs	14, cr6, [r3, #-456]!	; 0xfffffe38
    9184:	79742870 	ldmdbvc	r4!, {r4, r5, r6, fp, sp}^
    9188:	6c22202c 	stcvs	0, cr2, [r2], #-176	; 0xffffff50
    918c:	2c22646c 	cfstrscs	mvf6, [r2], #-432	; 0xfffffe50
    9190:	20293320 	eorcs	r3, r9, r0, lsr #6
    9194:	30203d3d 	eorcc	r3, r0, sp, lsr sp
    9198:	00000000 	andeq	r0, r0, r0
    919c:	494e4150 	stmdbmi	lr, {r4, r6, r8, lr}^
    91a0:	73253a43 			; <UNDEFINED> instruction: 0x73253a43
    91a4:	3a73253a 	bcc	1cd2694 <__bss_end__+0x1cc902c>
    91a8:	693a6425 	ldmdbvs	sl!, {r0, r2, r5, sl, sp, lr}
    91ac:	736f706d 	cmnvc	pc, #109	; 0x6d
    91b0:	6c626973 			; <UNDEFINED> instruction: 0x6c626973
    91b4:	66203a65 	strtvs	r3, [r0], -r5, ror #20
    91b8:	3c3d746d 	cfldrscc	mvf7, [sp], #-436	; 0xfffffe4c
    91bc:	0a3e7325 	beq	fa5e58 <__bss_end__+0xf9c7f0>
    91c0:	0000000a 	andeq	r0, r0, sl
    91c4:	494e4150 	stmdbmi	lr, {r4, r6, r8, lr}^
    91c8:	73253a43 			; <UNDEFINED> instruction: 0x73253a43
    91cc:	3a73253a 	bcc	1cd26bc <__bss_end__+0x1cc9054>
    91d0:	663a6425 	ldrtvs	r6, [sl], -r5, lsr #8
    91d4:	74616f6c 	strbtvc	r6, [r1], #-3948	; 0xfffff094
    91d8:	746f6e20 	strbtvc	r6, [pc], #-3616	; 91e0 <__FUNCTION__.4027+0x110>
    91dc:	616e6520 	cmnvs	lr, r0, lsr #10
    91e0:	64656c62 	strbtvs	r6, [r5], #-3170	; 0xfffff39e
    91e4:	0a212121 	beq	851670 <__bss_end__+0x848008>
    91e8:	00000000 	andeq	r0, r0, r0
    91ec:	6e697270 	mcrvs	2, 3, r7, cr9, cr0, {3}
    91f0:	203a6b74 	eorscs	r6, sl, r4, ror fp
    91f4:	20746f6e 	rsbscs	r6, r4, lr, ror #30
    91f8:	646e6168 	strbtvs	r6, [lr], #-360	; 0xfffffe98
    91fc:	676e696c 	strbvs	r6, [lr, -ip, ror #18]!
    9200:	65707320 	ldrbvs	r7, [r0, #-800]!	; 0xfffffce0
    9204:	69666963 	stmdbvs	r6!, {r0, r1, r5, r6, r8, fp, sp, lr}^
    9208:	27207265 	strcs	r7, [r0, -r5, ror #4]!
    920c:	20276325 	eorcs	r6, r7, r5, lsr #6
    9210:	63736128 	cmnvs	r3, #40, 2
    9214:	253d6969 	ldrcs	r6, [sp, #-2409]!	; 0xfffff697
    9218:	000a2964 	andeq	r2, sl, r4, ror #18
    921c:	494e4150 	stmdbmi	lr, {r4, r6, r8, lr}^
    9220:	73253a43 			; <UNDEFINED> instruction: 0x73253a43
    9224:	3a73253a 	bcc	1cd2714 <__bss_end__+0x1cc90ac>
    9228:	703a6425 	eorsvc	r6, sl, r5, lsr #8
    922c:	746e6972 	strbtvc	r6, [lr], #-2418	; 0xfffff68e
    9230:	7265206b 	rsbvc	r2, r5, #107	; 0x6b
    9234:	0a726f72 	beq	1ca5004 <__bss_end__+0x1c9b99c>
    9238:	0000000a 	andeq	r0, r0, sl

0000923c <__FUNCTION__.4000>:
    923c:	74696d65 	strbtvc	r6, [r9], #-3429	; 0xfffff29b
    9240:	00000000 	andeq	r0, r0, r0

00009244 <__FUNCTION__.3948>:
    9244:	5f697072 	svcpl	0x00697072
    9248:	5f746573 	svcpl	0x00746573
    924c:	7074756f 	rsbsvc	r7, r4, pc, ror #10
    9250:	00007475 	andeq	r7, r0, r5, ror r4

00009254 <__FUNCTION__.4026>:
    9254:	705f6176 	subsvc	r6, pc, r6, ror r1	; <UNPREDICTABLE>
    9258:	746e6972 	strbtvc	r6, [lr], #-2418	; 0xfffff68e
    925c:	Address 0x000000000000925c is out of bounds.


Disassembly of section .data:

00009260 <putk>:
    9260:	00008458 	andeq	r8, r0, r8, asr r4

00009264 <rpi_putchar>:
    9264:	0000848c 	andeq	r8, r0, ip, lsl #9

Disassembly of section .bss:

00009268 <buf.3940>:
	...

Disassembly of section .ARM.attributes:

00000000 <.ARM.attributes>:
   0:	00002a41 	andeq	r2, r0, r1, asr #20
   4:	61656100 	cmnvs	r5, r0, lsl #2
   8:	01006962 	tsteq	r0, r2, ror #18
   c:	00000020 	andeq	r0, r0, r0, lsr #32
  10:	4b5a3605 	blmi	168d82c <__bss_end__+0x16841c4>
  14:	08070600 	stmdaeq	r7, {r9, sl}
  18:	12010901 	andne	r0, r1, #16384	; 0x4000
  1c:	15011404 	strne	r1, [r1, #-1028]	; 0xfffffbfc
  20:	18031701 	stmdane	r3, {r0, r8, r9, sl, ip}
  24:	22011a01 	andcs	r1, r1, #4096	; 0x1000
  28:	Address 0x0000000000000028 is out of bounds.


Disassembly of section .comment:

00000000 <.comment>:
   0:	3a434347 	bcc	10d0d24 <__bss_end__+0x10c76bc>
   4:	35312820 	ldrcc	r2, [r1, #-2080]!	; 0xfffff7e0
   8:	322d393a 	eorcc	r3, sp, #950272	; 0xe8000
   c:	2d393130 	ldfcss	f3, [r9, #-192]!	; 0xffffff40
  10:	302d3471 	eorcc	r3, sp, r1, ror r4
  14:	6e756275 	mrcvs	2, 3, r6, cr5, cr5, {3}
  18:	29317574 	ldmdbcs	r1!, {r2, r4, r5, r6, r8, sl, ip, sp, lr}
  1c:	322e3920 	eorcc	r3, lr, #32, 18	; 0x80000
  20:	3220312e 	eorcc	r3, r0, #-2147483637	; 0x8000000b
  24:	31393130 	teqcc	r9, r0, lsr r1
  28:	20353230 	eorscs	r3, r5, r0, lsr r2
  2c:	6c657228 	sfmvs	f7, 2, [r5], #-160	; 0xffffff60
  30:	65736165 	ldrbvs	r6, [r3, #-357]!	; 0xfffffe9b
  34:	415b2029 	cmpmi	fp, r9, lsr #32
  38:	612f4d52 			; <UNDEFINED> instruction: 0x612f4d52
  3c:	392d6d72 	pushcc	{r1, r4, r5, r6, r8, sl, fp, sp, lr}
  40:	6172622d 	cmnvs	r2, sp, lsr #4
  44:	2068636e 	rsbcs	r6, r8, lr, ror #6
  48:	69766572 	ldmdbvs	r6!, {r1, r4, r5, r6, r8, sl, sp, lr}^
  4c:	6e6f6973 			; <UNDEFINED> instruction: 0x6e6f6973
  50:	37373220 	ldrcc	r3, [r7, -r0, lsr #4]!
  54:	5d393935 			; <UNDEFINED> instruction: 0x5d393935
	...

Disassembly of section .debug_info:

00000000 <.debug_info>:
       0:	000000fd 	strdeq	r0, [r0], -sp
       4:	00000004 	andeq	r0, r0, r4
       8:	01040000 	mrseq	r0, (UNDEF: 4)
       c:	000000bb 	strheq	r0, [r0], -fp
      10:	0000770c 	andeq	r7, r0, ip, lsl #14
      14:	00009600 	andeq	r9, r0, r0, lsl #12
      18:	00803800 	addeq	r3, r0, r0, lsl #16
      1c:	00001000 	andeq	r1, r0, r0
      20:	00000000 	andeq	r0, r0, r0
      24:	05040200 	streq	r0, [r4, #-512]	; 0xfffffe00
      28:	00746e69 	rsbseq	r6, r4, r9, ror #28
      2c:	46070403 	strmi	r0, [r7], -r3, lsl #8
      30:	03000000 	movweq	r0, #0
      34:	001d0601 	andseq	r0, sp, r1, lsl #12
      38:	02030000 	andeq	r0, r3, #0
      3c:	00006d05 	andeq	r6, r0, r5, lsl #26
      40:	05040300 	streq	r0, [r4, #-768]	; 0xfffffd00
      44:	00000058 	andeq	r0, r0, r8, asr r0
      48:	53050803 	movwpl	r0, #22531	; 0x5803
      4c:	03000000 	movweq	r0, #0
      50:	001b0801 	andseq	r0, fp, r1, lsl #16
      54:	02030000 	andeq	r0, r3, #0
      58:	00002907 	andeq	r2, r0, r7, lsl #18
      5c:	07040300 	streq	r0, [r4, -r0, lsl #6]
      60:	00000041 	andeq	r0, r0, r1, asr #32
      64:	3c070803 	stccc	8, cr0, [r7], {3}
      68:	04000000 	streq	r0, [r0], #-0
      6c:	00000025 	andeq	r0, r0, r5, lsr #32
      70:	0000007a 	andeq	r0, r0, sl, ror r0
      74:	00002505 	andeq	r2, r0, r5, lsl #10
      78:	61060000 	mrsvs	r0, (UNDEF: 6)
      7c:	02000000 	andeq	r0, r0, #0
      80:	00860e1c 	addeq	r0, r6, ip, lsl lr
      84:	04070000 	streq	r0, [r7], #-0
      88:	0000006b 	andeq	r0, r0, fp, rrx
      8c:	00002504 	andeq	r2, r0, r4, lsl #10
      90:	00009b00 	andeq	r9, r0, r0, lsl #22
      94:	009b0500 	addseq	r0, fp, r0, lsl #10
      98:	07000000 	streq	r0, [r0, -r0]
      9c:	0000a804 	andeq	sl, r0, r4, lsl #16
      a0:	08010300 	stmdaeq	r1, {r8, r9}
      a4:	00000024 	andeq	r0, r0, r4, lsr #32
      a8:	0000a108 	andeq	sl, r0, r8, lsl #2
      ac:	03e60600 	mvneq	r0, #0, 12
      b0:	21020000 	mrscs	r0, (UNDEF: 2)
      b4:	0000b90e 	andeq	fp, r0, lr, lsl #18
      b8:	8c040700 	stchi	7, cr0, [r4], {-0}
      bc:	09000000 	stmdbeq	r0, {}	; <UNPREDICTABLE>
      c0:	00000013 	andeq	r0, r0, r3, lsl r0
      c4:	38060401 	stmdacc	r6, {r0, sl}
      c8:	10000080 	andne	r0, r0, r0, lsl #1
      cc:	01000000 	mrseq	r0, (UNDEF: 0)
      d0:	0000e89c 	muleq	r0, ip, r8
      d4:	80400a00 	subhi	r0, r0, r0, lsl #20
      d8:	00e80000 	rsceq	r0, r8, r0
      dc:	440a0000 	strmi	r0, [sl], #-0
      e0:	f4000080 	vst4.32	{d0-d3}, [r0], r0
      e4:	00000000 	andeq	r0, r0, r0
      e8:	0000890b 	andeq	r8, r0, fp, lsl #18
      ec:	00008900 	andeq	r8, r0, r0, lsl #18
      f0:	06160300 	ldreq	r0, [r6], -r0, lsl #6
      f4:	0000000b 	andeq	r0, r0, fp
      f8:	00000000 	andeq	r0, r0, r0
      fc:	061b0300 	ldreq	r0, [fp], -r0, lsl #6
     100:	00073b00 	andeq	r3, r7, r0, lsl #22
     104:	99000400 	stmdbls	r0, {sl}
     108:	04000000 	streq	r0, [r0], #-0
     10c:	0000bb01 	andeq	fp, r0, r1, lsl #22
     110:	01a90c00 			; <UNDEFINED> instruction: 0x01a90c00
     114:	00960000 	addseq	r0, r6, r0
     118:	80480000 	subhi	r0, r8, r0
     11c:	02740000 	rsbseq	r0, r4, #0
     120:	00880000 	addeq	r0, r8, r0
     124:	04020000 	streq	r0, [r2], #-0
     128:	746e6905 	strbtvc	r6, [lr], #-2309	; 0xfffff6fb
     12c:	07040300 	streq	r0, [r4, -r0, lsl #6]
     130:	00000046 	andeq	r0, r0, r6, asr #32
     134:	1d060103 	stfnes	f0, [r6, #-12]
     138:	03000000 	movweq	r0, #0
     13c:	006d0502 	rsbeq	r0, sp, r2, lsl #10
     140:	04030000 	streq	r0, [r3], #-0
     144:	00005805 	andeq	r5, r0, r5, lsl #16
     148:	05080300 	streq	r0, [r8, #-768]	; 0xfffffd00
     14c:	00000053 	andeq	r0, r0, r3, asr r0
     150:	00021004 	andeq	r1, r2, r4
     154:	182e0300 	stmdane	lr!, {r8, r9}
     158:	0000005b 	andeq	r0, r0, fp, asr r0
     15c:	1b080103 	blne	200570 <__bss_end__+0x1f6f08>
     160:	03000000 	movweq	r0, #0
     164:	00290702 	eoreq	r0, r9, r2, lsl #14
     168:	37040000 	strcc	r0, [r4, -r0]
     16c:	03000002 	movweq	r0, #2
     170:	00751934 	rsbseq	r1, r5, r4, lsr r9
     174:	04030000 	streq	r0, [r3], #-0
     178:	00004107 	andeq	r4, r0, r7, lsl #2
     17c:	07080300 	streq	r0, [r8, -r0, lsl #6]
     180:	0000003c 	andeq	r0, r0, ip, lsr r0
     184:	00002505 	andeq	r2, r0, r5, lsl #10
     188:	00009200 	andeq	r9, r0, r0, lsl #4
     18c:	00250600 	eoreq	r0, r5, r0, lsl #12
     190:	07000000 	streq	r0, [r0, -r0]
     194:	00000061 	andeq	r0, r0, r1, rrx
     198:	9e0e1c04 	cdpls	12, 0, cr1, cr14, cr4, {0}
     19c:	08000000 	stmdaeq	r0, {}	; <UNPREDICTABLE>
     1a0:	00008304 	andeq	r8, r0, r4, lsl #6
     1a4:	00250500 	eoreq	r0, r5, r0, lsl #10
     1a8:	00b30000 	adcseq	r0, r3, r0
     1ac:	b3060000 	movwlt	r0, #24576	; 0x6000
     1b0:	00000000 	andeq	r0, r0, r0
     1b4:	00c00408 	sbceq	r0, r0, r8, lsl #8
     1b8:	01030000 	mrseq	r0, (UNDEF: 3)
     1bc:	00002408 	andeq	r2, r0, r8, lsl #8
     1c0:	00b90900 	adcseq	r0, r9, r0, lsl #18
     1c4:	e6070000 	str	r0, [r7], -r0
     1c8:	04000003 	streq	r0, [r0], #-3
     1cc:	00d10e21 	sbcseq	r0, r1, r1, lsr #28
     1d0:	04080000 	streq	r0, [r8], #-0
     1d4:	000000a4 	andeq	r0, r0, r4, lsr #1
     1d8:	0001e30a 	andeq	lr, r1, sl, lsl #6
     1dc:	0d790100 	ldfeqe	f0, [r9, #-0]
     1e0:	00008048 	andeq	r8, r0, r8, asr #32
     1e4:	00000028 	andeq	r0, r0, r8, lsr #32
     1e8:	01369c01 	teqeq	r6, r1, lsl #24
     1ec:	540b0000 	strpl	r0, [fp], #-0
     1f0:	d2000080 	andle	r0, r0, #128	; 0x80
     1f4:	00000006 	andeq	r0, r0, r6
     1f8:	0c000001 	stceq	0, cr0, [r0], {1}
     1fc:	36015001 	strcc	r5, [r1], -r1
     200:	805c0b00 	subshi	r0, ip, r0, lsl #22
     204:	06de0000 	ldrbeq	r0, [lr], r0
     208:	01130000 	tsteq	r3, r0
     20c:	010c0000 	mrseq	r0, (UNDEF: 12)
     210:	00310150 	eorseq	r0, r1, r0, asr r1
     214:	0080640b 	addeq	r6, r0, fp, lsl #8
     218:	0006ea00 	andeq	lr, r6, r0, lsl #20
     21c:	00012600 	andeq	r2, r1, r0, lsl #12
     220:	50010c00 	andpl	r0, r1, r0, lsl #24
     224:	0d003601 	stceq	6, cr3, [r0, #-4]
     228:	0000806c 	andeq	r8, r0, ip, rrx
     22c:	000006de 	ldrdeq	r0, [r0], -lr
     230:	0150010c 	cmpeq	r0, ip, lsl #2
     234:	0a000031 	beq	300 <__code_start__-0x7d00>
     238:	0000022c 	andeq	r0, r0, ip, lsr #4
     23c:	700d7201 	andvc	r7, sp, r1, lsl #4
     240:	38000080 	stmdacc	r0, {r7}
     244:	01000000 	mrseq	r0, (UNDEF: 0)
     248:	0001cb9c 	muleq	r1, ip, fp
     24c:	69700e00 	ldmdbvs	r0!, {r9, sl, fp}^
     250:	7201006e 	andvc	r0, r1, #110	; 0x6e
     254:	00002c21 	andeq	r2, r0, r1, lsr #24
     258:	00000400 	andeq	r0, r0, r0, lsl #8
     25c:	00000000 	andeq	r0, r0, r0
     260:	61760e00 	cmnvs	r6, r0, lsl #28
     264:	7201006c 	andvc	r0, r1, #108	; 0x6c
     268:	00002c2f 	andeq	r2, r0, pc, lsr #24
     26c:	00002600 	andeq	r2, r0, r0, lsl #12
     270:	00002200 	andeq	r2, r0, r0, lsl #4
     274:	006e0e00 	rsbeq	r0, lr, r0, lsl #28
     278:	2c3d7201 	lfmcs	f7, 4, [sp], #-4
     27c:	48000000 	stmdami	r0, {}	; <UNPREDICTABLE>
     280:	44000000 	strmi	r0, [r0], #-0
     284:	0f000000 	svceq	0x00000000
     288:	00008080 	andeq	r8, r0, r0, lsl #1
     28c:	00000028 	andeq	r0, r0, r8, lsr #32
     290:	01006910 	tsteq	r0, r0, lsl r9
     294:	002c1273 	eoreq	r1, ip, r3, ror r2
     298:	006a0000 	rsbeq	r0, sl, r0
     29c:	00660000 	rsbeq	r0, r6, r0
     2a0:	9c0b0000 	stcls	0, cr0, [fp], {-0}
     2a4:	f6000080 			; <UNDEFINED> instruction: 0xf6000080
     2a8:	c0000006 	andgt	r0, r0, r6
     2ac:	0c000001 	stceq	0, cr0, [r0], {1}
     2b0:	77025001 	strvc	r5, [r2, -r1]
     2b4:	51010c00 	tstpl	r1, r0, lsl #24
     2b8:	74007607 	strvc	r7, [r0], #-1543	; 0xfffff9f9
     2bc:	1a312500 	bne	c496c4 <__bss_end__+0xc4005c>
     2c0:	80a01100 	adchi	r1, r0, r0, lsl #2
     2c4:	00d70000 	sbcseq	r0, r7, r0
     2c8:	00000000 	andeq	r0, r0, r0
     2cc:	0001bd12 	andeq	fp, r1, r2, lsl sp
     2d0:	0a580100 	beq	16006d8 <__bss_end__+0x15f7070>
     2d4:	00000069 	andeq	r0, r0, r9, rrx
     2d8:	000081b0 			; <UNDEFINED> instruction: 0x000081b0
     2dc:	00000094 	muleq	r0, r4, r0
     2e0:	02f79c01 	rscseq	r9, r7, #256	; 0x100
     2e4:	8a130000 	bhi	4c02ec <__bss_end__+0x4b6c84>
     2e8:	01000001 	tsteq	r0, r1
     2ec:	00691d58 	rsbeq	r1, r9, r8, asr sp
     2f0:	008d0000 	addeq	r0, sp, r0
     2f4:	00890000 	addeq	r0, r9, r0
     2f8:	87140000 	ldrhi	r0, [r4, -r0]
     2fc:	01000001 	tsteq	r0, r1
     300:	00690e5d 	rsbeq	r0, r9, sp, asr lr
     304:	00af0000 	adceq	r0, pc, r0
     308:	00ab0000 	adceq	r0, fp, r0
     30c:	00150000 	andseq	r0, r5, r0
     310:	63000000 	movwvs	r0, #0
     314:	10000002 	andne	r0, r0, r2
     318:	60010069 	andvs	r0, r1, r9, rrx
     31c:	00002c13 	andeq	r2, r0, r3, lsl ip
     320:	0000d200 	andeq	sp, r0, r0, lsl #4
     324:	0000ce00 	andeq	ip, r0, r0, lsl #28
     328:	81ec0b00 	mvnhi	r0, r0, lsl #22
     32c:	06f60000 	ldrbteq	r0, [r6], r0
     330:	02460000 	subeq	r0, r6, #0
     334:	010c0000 	mrseq	r0, (UNDEF: 12)
     338:	0c350150 	ldfeqs	f0, [r5], #-320	; 0xfffffec0
     33c:	76075101 	strvc	r5, [r7], -r1, lsl #2
     340:	25007400 	strcs	r7, [r0, #-1024]	; 0xfffffc00
     344:	0b001a31 	bleq	6c10 <__code_start__-0x13f0>
     348:	000081f4 	strdeq	r8, [r0], -r4
     34c:	00000702 	andeq	r0, r0, r2, lsl #14
     350:	00000259 	andeq	r0, r0, r9, asr r2
     354:	0150010c 	cmpeq	r0, ip, lsl #2
     358:	fc11003d 	ldc2	0, cr0, [r1], {61}	; 0x3d
     35c:	d7000081 	strle	r0, [r0, -r1, lsl #1]
     360:	00000000 	andeq	r0, r0, r0
     364:	0081c00b 	addeq	ip, r1, fp
     368:	0006ea00 	andeq	lr, r6, r0, lsl #20
     36c:	00027600 	andeq	r7, r2, r0, lsl #12
     370:	50010c00 	andpl	r0, r1, r0, lsl #24
     374:	0b003601 	bleq	db80 <__bss_end__+0x4518>
     378:	000081d0 	ldrdeq	r8, [r0], -r0
     37c:	00000136 	andeq	r0, r0, r6, lsr r1
     380:	00000293 	muleq	r0, r3, r2
     384:	0150010c 	cmpeq	r0, ip, lsl #2
     388:	51010c43 	tstpl	r1, r3, asr #24
     38c:	010c3401 	tsteq	ip, r1, lsl #8
     390:	00330152 	eorseq	r0, r3, r2, asr r1
     394:	0082100b 	addeq	r1, r2, fp
     398:	0006d200 	andeq	sp, r6, r0, lsl #4
     39c:	0002a600 	andeq	sl, r2, r0, lsl #12
     3a0:	50010c00 	andpl	r0, r1, r0, lsl #24
     3a4:	0b004301 	bleq	10fb0 <__bss_end__+0x7948>
     3a8:	0000821c 	andeq	r8, r0, ip, lsl r2
     3ac:	000006f6 	strdeq	r0, [r0], -r6
     3b0:	000002c1 	andeq	r0, r0, r1, asr #5
     3b4:	0150010c 	cmpeq	r0, ip, lsl #2
     3b8:	51010c35 	tstpl	r1, r5, lsr ip
     3bc:	4f007604 	svcmi	0x00007604
     3c0:	240b0025 	strcs	r0, [fp], #-37	; 0xffffffdb
     3c4:	02000082 	andeq	r0, r0, #130	; 0x82
     3c8:	d4000007 	strle	r0, [r0], #-7
     3cc:	0c000002 	stceq	0, cr0, [r0], {2}
     3d0:	3d015001 	stccc	0, cr5, [r1, #-4]
     3d4:	822c1100 	eorhi	r1, ip, #0, 2
     3d8:	00d70000 	sbcseq	r0, r7, r0
     3dc:	3c0d0000 	stccc	0, cr0, [sp], {-0}
     3e0:	36000082 	strcc	r0, [r0], -r2, lsl #1
     3e4:	0c000001 	stceq	0, cr0, [r0], {1}
     3e8:	43015001 	movwmi	r5, #4097	; 0x1001
     3ec:	0151010c 	cmpeq	r1, ip, lsl #2
     3f0:	52010c32 	andpl	r0, r1, #12800	; 0x3200
     3f4:	00003201 	andeq	r3, r0, r1, lsl #4
     3f8:	0001f916 	andeq	pc, r1, r6, lsl r9	; <UNPREDICTABLE>
     3fc:	06460100 	strbeq	r0, [r6], -r0, lsl #2
     400:	0000813c 	andeq	r8, r0, ip, lsr r1
     404:	00000074 	andeq	r0, r0, r4, ror r0
     408:	03c59c01 	biceq	r9, r5, #256	; 0x100
     40c:	630e0000 	movwvs	r0, #57344	; 0xe000
     410:	0100646d 	tsteq	r0, sp, ror #8
     414:	004f1b46 	subeq	r1, pc, r6, asr #22
     418:	00f50000 	rscseq	r0, r5, r0
     41c:	00f10000 	rscseq	r0, r1, r0
     420:	5c170000 	ldcpl	0, cr0, [r7], {-0}
     424:	40000081 	andmi	r0, r0, r1, lsl #1
     428:	7b000000 	blvc	430 <__code_start__-0x7bd0>
     42c:	10000003 	andne	r0, r0, r3
     430:	4c010069 	stcmi	0, cr0, [r1], {105}	; 0x69
     434:	00004f11 	andeq	r4, r0, r1, lsl pc
     438:	00011c00 	andeq	r1, r1, r0, lsl #24
     43c:	00011600 	andeq	r1, r1, r0, lsl #12
     440:	816c0b00 	cmnhi	ip, r0, lsl #22
     444:	06d20000 	ldrbeq	r0, [r2], r0
     448:	03530000 	cmpeq	r3, #0
     44c:	010c0000 	mrseq	r0, (UNDEF: 12)
     450:	00430150 	subeq	r0, r3, r0, asr r1
     454:	00817c0b 	addeq	r7, r1, fp, lsl #24
     458:	0006f600 	andeq	pc, r6, r0, lsl #12
     45c:	00037100 	andeq	r7, r3, r0, lsl #2
     460:	50010c00 	andpl	r0, r1, r0, lsl #24
     464:	010c3501 	tsteq	ip, r1, lsl #10
     468:	00750751 	rsbseq	r0, r5, r1, asr r7
     46c:	31260074 			; <UNDEFINED> instruction: 0x31260074
     470:	8011001a 	andshi	r0, r1, sl, lsl r0
     474:	d7000081 	strle	r0, [r0, -r1, lsl #1]
     478:	00000000 	andeq	r0, r0, r0
     47c:	0081540b 	addeq	r5, r1, fp, lsl #8
     480:	00013600 	andeq	r3, r1, r0, lsl #12
     484:	00039800 	andeq	r9, r3, r0, lsl #16
     488:	50010c00 	andpl	r0, r1, r0, lsl #24
     48c:	010c4301 	tsteq	ip, r1, lsl #6
     490:	0c3c0151 	ldfeqs	f0, [ip], #-324	; 0xfffffebc
     494:	34015201 	strcc	r5, [r1], #-513	; 0xfffffdff
     498:	815c0b00 	cmphi	ip, r0, lsl #22
     49c:	06ea0000 	strbteq	r0, [sl], r0
     4a0:	03ab0000 			; <UNDEFINED> instruction: 0x03ab0000
     4a4:	010c0000 	mrseq	r0, (UNDEF: 12)
     4a8:	00430150 	subeq	r0, r3, r0, asr r1
     4ac:	0081ac0d 	addeq	sl, r1, sp, lsl #24
     4b0:	00013600 	andeq	r3, r1, r0, lsl #12
     4b4:	50010c00 	andpl	r0, r1, r0, lsl #24
     4b8:	010c4301 	tsteq	ip, r1, lsl #6
     4bc:	0c320151 	ldfeqs	f0, [r2], #-324	; 0xfffffebc
     4c0:	32015201 	andcc	r5, r1, #268435456	; 0x10000000
     4c4:	23160000 	tstcs	r6, #0
     4c8:	01000002 	tsteq	r0, r2
     4cc:	81100640 	tsthi	r0, r0, asr #12
     4d0:	002c0000 	eoreq	r0, ip, r0
     4d4:	9c010000 	stcls	0, cr0, [r1], {-0}
     4d8:	00000430 	andeq	r0, r0, r0, lsr r4
     4dc:	00018213 	andeq	r8, r1, r3, lsl r2
     4e0:	17400100 	strbne	r0, [r0, -r0, lsl #2]
     4e4:	0000004f 	andeq	r0, r0, pc, asr #32
     4e8:	0000014a 	andeq	r0, r0, sl, asr #2
     4ec:	00000146 	andeq	r0, r0, r6, asr #2
     4f0:	0081200b 	addeq	r2, r1, fp
     4f4:	0006ea00 	andeq	lr, r6, r0, lsl #20
     4f8:	00040200 	andeq	r0, r4, r0, lsl #4
     4fc:	50010c00 	andpl	r0, r1, r0, lsl #24
     500:	0b003501 	bleq	d90c <__bss_end__+0x42a4>
     504:	00008128 	andeq	r8, r0, r8, lsr #2
     508:	000006ea 	andeq	r0, r0, sl, ror #13
     50c:	00000415 	andeq	r0, r0, r5, lsl r4
     510:	0150010c 	cmpeq	r0, ip, lsl #2
     514:	380d0036 	stmdacc	sp, {r1, r2, r4, r5}
     518:	36000081 	strcc	r0, [r0], -r1, lsl #1
     51c:	0c000001 	stceq	0, cr0, [r0], {1}
     520:	43015001 	movwmi	r5, #4097	; 0x1001
     524:	0251010c 	subseq	r0, r1, #12, 2
     528:	010c0074 	tsteq	ip, r4, ror r0
     52c:	00360152 	eorseq	r0, r6, r2, asr r1
     530:	00001600 	andeq	r1, r0, r0, lsl #12
     534:	2d010000 	stccs	0, cr0, [r1, #-0]
     538:	00824406 	addeq	r4, r2, r6, lsl #8
     53c:	00007800 	andeq	r7, r0, r0, lsl #16
     540:	7e9c0100 	fmlvce	f0, f4, f0
     544:	14000005 	strne	r0, [r0], #-5
     548:	00000240 	andeq	r0, r0, r0, asr #4
     54c:	690e2e01 	stmdbvs	lr, {r0, r9, sl, fp, sp}
     550:	6f000000 	svcvs	0x00000000
     554:	6b000001 	blvs	560 <__code_start__-0x7aa0>
     558:	18000001 	stmdane	r0, {r0}
     55c:	00000688 	andeq	r0, r0, r8, lsl #13
     560:	00008288 	andeq	r8, r0, r8, lsl #5
     564:	00828801 	addeq	r8, r2, r1, lsl #16
     568:	00000000 	andeq	r0, r0, r0
     56c:	0f3b0100 	svceq	0x003b0100
     570:	0000048e 	andeq	r0, r0, lr, lsl #9
     574:	0006a319 	andeq	sl, r6, r9, lsl r3
     578:	00018f00 	andeq	r8, r1, r0, lsl #30
     57c:	00018d00 	andeq	r8, r1, r0, lsl #26
     580:	06991900 	ldreq	r1, [r9], r0, lsl #18
     584:	01a50000 			; <UNDEFINED> instruction: 0x01a50000
     588:	01a30000 			; <UNDEFINED> instruction: 0x01a30000
     58c:	18000000 	stmdane	r0, {}	; <UNPREDICTABLE>
     590:	00000688 	andeq	r0, r0, r8, lsl #13
     594:	00008290 	muleq	r0, r0, r2
     598:	00829000 	addeq	r9, r2, r0
     59c:	00000000 	andeq	r0, r0, r0
     5a0:	303b0100 	eorscc	r0, fp, r0, lsl #2
     5a4:	000004c2 	andeq	r0, r0, r2, asr #9
     5a8:	0006a319 	andeq	sl, r6, r9, lsl r3
     5ac:	0001ba00 	andeq	fp, r1, r0, lsl #20
     5b0:	0001b800 	andeq	fp, r1, r0, lsl #16
     5b4:	06991900 	ldreq	r1, [r9], r0, lsl #18
     5b8:	01d00000 	bicseq	r0, r0, r0
     5bc:	01ce0000 	biceq	r0, lr, r0
     5c0:	0b000000 	bleq	5c8 <__code_start__-0x7a38>
     5c4:	00008250 	andeq	r8, r0, r0, asr r2
     5c8:	0000070e 	andeq	r0, r0, lr, lsl #14
     5cc:	000004d9 	ldrdeq	r0, [r0], -r9
     5d0:	0550010c 	ldrbeq	r0, [r0, #-268]	; 0xfffffef4
     5d4:	00903c03 	addseq	r3, r0, r3, lsl #24
     5d8:	580b0000 	stmdapl	fp, {}	; <UNPREDICTABLE>
     5dc:	c5000082 	strgt	r0, [r0, #-130]	; 0xffffff7e
     5e0:	ec000003 	stc	0, cr0, [r0], {3}
     5e4:	0c000004 	stceq	0, cr0, [r0], {4}
     5e8:	4f015001 	svcmi	0x00015001
     5ec:	82600b00 	rsbhi	r0, r0, #0, 22
     5f0:	070e0000 	streq	r0, [lr, -r0]
     5f4:	05030000 	streq	r0, [r3, #-0]
     5f8:	010c0000 	mrseq	r0, (UNDEF: 12)
     5fc:	4c030550 	cfstr32mi	mvfx0, [r3], {80}	; 0x50
     600:	00000090 	muleq	r0, r0, r0
     604:	0082680b 	addeq	r6, r2, fp, lsl #16
     608:	0002f700 	andeq	pc, r2, r0, lsl #14
     60c:	00051600 	andeq	r1, r5, r0, lsl #12
     610:	50010c00 	andpl	r0, r1, r0, lsl #24
     614:	0b003401 	bleq	d620 <__bss_end__+0x3fb8>
     618:	00008270 	andeq	r8, r0, r0, ror r2
     61c:	0000070e 	andeq	r0, r0, lr, lsl #14
     620:	0000052d 	andeq	r0, r0, sp, lsr #10
     624:	0550010c 	ldrbeq	r0, [r0, #-268]	; 0xfffffef4
     628:	00906c03 	addseq	r6, r0, r3, lsl #24
     62c:	780b0000 	stmdavc	fp, {}	; <UNPREDICTABLE>
     630:	f7000082 			; <UNDEFINED> instruction: 0xf7000082
     634:	40000002 	andmi	r0, r0, r2
     638:	0c000005 	stceq	0, cr0, [r0], {5}
     63c:	37015001 	strcc	r5, [r1, -r1]
     640:	82800b00 	addhi	r0, r0, #0, 22
     644:	070e0000 	streq	r0, [lr, -r0]
     648:	05570000 	ldrbeq	r0, [r7, #-0]
     64c:	010c0000 	mrseq	r0, (UNDEF: 12)
     650:	8c030550 	cfstr32hi	mvfx0, [r3], {80}	; 0x50
     654:	00000090 	muleq	r0, r0, r0
     658:	0082880b 	addeq	r8, r2, fp, lsl #16
     65c:	0001cb00 	andeq	ip, r1, r0, lsl #22
     660:	00056a00 	andeq	r6, r5, r0, lsl #20
     664:	50010c00 	andpl	r0, r1, r0, lsl #24
     668:	0d003001 	stceq	0, cr3, [r0, #-4]
     66c:	000082a4 	andeq	r8, r0, r4, lsr #5
     670:	0000070e 	andeq	r0, r0, lr, lsl #14
     674:	0550010c 	ldrbeq	r0, [r0, #-268]	; 0xfffffef4
     678:	0090ac03 	addseq	sl, r0, r3, lsl #24
     67c:	16000000 	strne	r0, [r0], -r0
     680:	00000170 	andeq	r0, r0, r0, ror r1
     684:	e8061001 	stmda	r6, {r0, ip}
     688:	28000080 	stmdacs	r0, {r7}
     68c:	01000000 	mrseq	r0, (UNDEF: 0)
     690:	0005db9c 	muleq	r5, ip, fp
     694:	01ec1a00 	mvneq	r1, r0, lsl #20
     698:	05eb0000 	strbeq	r0, [fp, #0]!
     69c:	03050000 	movweq	r0, #20480	; 0x5000
     6a0:	000090d0 	ldrdeq	r9, [r0], -r0
     6a4:	0081000b 	addeq	r0, r1, fp
     6a8:	00070e00 	andeq	r0, r7, r0, lsl #28
     6ac:	0005d100 	andeq	sp, r5, r0, lsl #2
     6b0:	50010c00 	andpl	r0, r1, r0, lsl #24
     6b4:	90100305 	andsls	r0, r0, r5, lsl #6
     6b8:	010c0000 	mrseq	r0, (UNDEF: 12)
     6bc:	08030551 	stmdaeq	r3, {r0, r4, r6, r8, sl}
     6c0:	0c000090 	stceq	0, cr0, [r0], {144}	; 0x90
     6c4:	03055201 	movweq	r5, #20993	; 0x5201
     6c8:	000090d0 	ldrdeq	r9, [r0], -r0
     6cc:	0153010c 	cmpeq	r3, ip, lsl #2
     6d0:	04110041 	ldreq	r0, [r1], #-65	; 0xffffffbf
     6d4:	1a000081 	bne	8e0 <__code_start__-0x7720>
     6d8:	00000007 	andeq	r0, r0, r7
     6dc:	0000c01b 	andeq	ip, r0, fp, lsl r0
     6e0:	0005eb00 	andeq	lr, r5, r0, lsl #22
     6e4:	002c1c00 	eoreq	r1, ip, r0, lsl #24
     6e8:	00160000 	andseq	r0, r6, r0
     6ec:	0005db09 	andeq	sp, r5, r9, lsl #22
     6f0:	00891600 	addeq	r1, r9, r0, lsl #12
     6f4:	04010000 	streq	r0, [r1], #-0
     6f8:	0080a806 	addeq	sl, r0, r6, lsl #16
     6fc:	00004000 	andeq	r4, r0, r0
     700:	889c0100 	ldmhi	ip, {r8}
     704:	0b000006 	bleq	724 <__code_start__-0x78dc>
     708:	000080b4 	strheq	r8, [r0], -r4
     70c:	00000726 	andeq	r0, r0, r6, lsr #14
     710:	00000619 	andeq	r0, r0, r9, lsl r6
     714:	0150010c 	cmpeq	r0, ip, lsl #2
     718:	bc0b004a 	stclt	0, cr0, [fp], {74}	; 0x4a
     71c:	26000080 	strcs	r0, [r0], -r0, lsl #1
     720:	2c000007 	stccs	0, cr0, [r0], {7}
     724:	0c000006 	stceq	0, cr0, [r0], {6}
     728:	36015001 	strcc	r5, [r1], -r1
     72c:	80c40b00 	sbchi	r0, r4, r0, lsl #22
     730:	07260000 	streq	r0, [r6, -r0]!
     734:	063f0000 	ldrteq	r0, [pc], -r0
     738:	010c0000 	mrseq	r0, (UNDEF: 12)
     73c:	00350150 	eorseq	r0, r5, r0, asr r1
     740:	0080cc0b 	addeq	ip, r0, fp, lsl #24
     744:	00073200 	andeq	r3, r7, r0, lsl #4
     748:	00065200 	andeq	r5, r6, r0, lsl #4
     74c:	50010c00 	andpl	r0, r1, r0, lsl #24
     750:	0b003d01 	bleq	fb5c <__bss_end__+0x64f4>
     754:	000080d4 	ldrdeq	r8, [r0], -r4
     758:	000006ea 	andeq	r0, r0, sl, ror #13
     75c:	00000665 	andeq	r0, r0, r5, ror #12
     760:	0150010c 	cmpeq	r0, ip, lsl #2
     764:	dc0b004a 	stcle	0, cr0, [fp], {74}	; 0x4a
     768:	ea000080 	b	970 <__code_start__-0x7690>
     76c:	78000006 	stmdavc	r0, {r1, r2}
     770:	0c000006 	stceq	0, cr0, [r0], {6}
     774:	36015001 	strcc	r5, [r1], -r1
     778:	80e40d00 	rschi	r0, r4, r0, lsl #26
     77c:	06ea0000 	strbteq	r0, [sl], r0
     780:	010c0000 	mrseq	r0, (UNDEF: 12)
     784:	00350150 	eorseq	r0, r5, r0, asr r1
     788:	02061d00 	andeq	r1, r6, #0, 26
     78c:	1e020000 	cdpne	0, 0, cr0, cr2, cr0, {0}
     790:	00002c01 	andeq	r2, r0, r1, lsl #24
     794:	06bd0300 	ldrteq	r0, [sp], r0, lsl #6
     798:	781e0000 	ldmdavc	lr, {}	; <UNPREDICTABLE>
     79c:	141e0200 	ldrne	r0, [lr], #-512	; 0xfffffe00
     7a0:	00000069 	andeq	r0, r0, r9, rrx
     7a4:	7469621e 	strbtvc	r6, [r9], #-542	; 0xfffffde2
     7a8:	201e0200 	andscs	r0, lr, r0, lsl #4
     7ac:	0000002c 	andeq	r0, r0, ip, lsr #32
     7b0:	0001ec1f 	andeq	lr, r1, pc, lsl ip
     7b4:	0006cd00 	andeq	ip, r6, r0, lsl #26
     7b8:	00020600 	andeq	r0, r2, r0, lsl #12
     7bc:	c01b0000 	andsgt	r0, fp, r0
     7c0:	cd000000 	stcgt	0, cr0, [r0, #-0]
     7c4:	1c000006 	stcne	0, cr0, [r0], {6}
     7c8:	0000002c 	andeq	r0, r0, ip, lsr #32
     7cc:	bd090009 	stclt	0, cr0, [r9, #-36]	; 0xffffffdc
     7d0:	20000006 	andcs	r0, r0, r6
     7d4:	00000253 	andeq	r0, r0, r3, asr r2
     7d8:	00000253 	andeq	r0, r0, r3, asr r2
     7dc:	20062705 	andcs	r2, r6, r5, lsl #14
     7e0:	0000024a 	andeq	r0, r0, sl, asr #4
     7e4:	0000024a 	andeq	r0, r0, sl, asr #4
     7e8:	20065604 	andcs	r5, r6, r4, lsl #12
     7ec:	000001d6 	ldrdeq	r0, [r0], -r6
     7f0:	000001d6 	ldrdeq	r0, [r0], -r6
     7f4:	20062a05 	andcs	r2, r6, r5, lsl #20
     7f8:	00000218 	andeq	r0, r0, r8, lsl r2
     7fc:	00000218 	andeq	r0, r0, r8, lsl r2
     800:	20062105 	andcs	r2, r6, r5, lsl #2
     804:	0000018f 	andeq	r0, r0, pc, lsl #3
     808:	0000018f 	andeq	r0, r0, pc, lsl #3
     80c:	20052405 	andcs	r2, r5, r5, lsl #8
     810:	000003a8 	andeq	r0, r0, r8, lsr #7
     814:	000003a8 	andeq	r0, r0, r8, lsr #7
     818:	20062804 	andcs	r2, r6, r4, lsl #16
     81c:	000001b0 			; <UNDEFINED> instruction: 0x000001b0
     820:	000001b0 			; <UNDEFINED> instruction: 0x000001b0
     824:	20066e04 	andcs	r6, r6, r4, lsl #28
     828:	00000199 	muleq	r0, r9, r1
     82c:	00000199 	muleq	r0, r9, r1
     830:	20061d05 	andcs	r1, r6, r5, lsl #26
     834:	000001c7 	andeq	r0, r0, r7, asr #3
     838:	000001c7 	andeq	r0, r0, r7, asr #3
     83c:	00061c05 	andeq	r1, r6, r5, lsl #24
     840:	00000499 	muleq	r0, r9, r4
     844:	027e0004 	rsbseq	r0, lr, #4
     848:	01040000 	mrseq	r0, (UNDEF: 4)
     84c:	000000bb 	strheq	r0, [r0], -fp
     850:	0003190c 	andeq	r1, r3, ip, lsl #18
     854:	0002c800 	andeq	ip, r2, r0, lsl #16
     858:	0082bc00 	addeq	fp, r2, r0, lsl #24
     85c:	00014400 	andeq	r4, r1, r0, lsl #8
     860:	00037300 	andeq	r7, r3, r0, lsl #6
     864:	05040200 	streq	r0, [r4, #-512]	; 0xfffffe00
     868:	00746e69 	rsbseq	r6, r4, r9, ror #28
     86c:	46070403 	strmi	r0, [r7], -r3, lsl #8
     870:	04000000 	streq	r0, [r0], #-0
     874:	0000002c 	andeq	r0, r0, ip, lsr #32
     878:	1d060103 	stfnes	f0, [r6, #-12]
     87c:	03000000 	movweq	r0, #0
     880:	006d0502 	rsbeq	r0, sp, r2, lsl #10
     884:	04030000 	streq	r0, [r3], #-0
     888:	00005805 	andeq	r5, r0, r5, lsl #16
     88c:	05080300 	streq	r0, [r8, #-768]	; 0xfffffd00
     890:	00000053 	andeq	r0, r0, r3, asr r0
     894:	1b080103 	blne	200ca8 <__bss_end__+0x1f7640>
     898:	03000000 	movweq	r0, #0
     89c:	00290702 	eoreq	r0, r9, r2, lsl #14
     8a0:	37050000 	strcc	r0, [r5, -r0]
     8a4:	03000002 	movweq	r0, #2
     8a8:	006e1934 	rsbeq	r1, lr, r4, lsr r9
     8ac:	04030000 	streq	r0, [r3], #-0
     8b0:	00004107 	andeq	r4, r0, r7, lsl #2
     8b4:	07080300 	streq	r0, [r8, -r0, lsl #6]
     8b8:	0000003c 	andeq	r0, r0, ip, lsr r0
     8bc:	00027d05 	andeq	r7, r2, r5, lsl #26
     8c0:	1a560300 	bne	15814c8 <__bss_end__+0x1577e60>
     8c4:	0000002c 	andeq	r0, r0, ip, lsr #32
     8c8:	00002506 	andeq	r2, r0, r6, lsl #10
     8cc:	00009700 	andeq	r9, r0, r0, lsl #14
     8d0:	00250700 	eoreq	r0, r5, r0, lsl #14
     8d4:	08000000 	stmdaeq	r0, {}	; <UNPREDICTABLE>
     8d8:	00000061 	andeq	r0, r0, r1, rrx
     8dc:	a30e1c02 	movwge	r1, #60418	; 0xec02
     8e0:	09000000 	stmdbeq	r0, {}	; <UNPREDICTABLE>
     8e4:	00008804 	andeq	r8, r0, r4, lsl #16
     8e8:	00250600 	eoreq	r0, r5, r0, lsl #12
     8ec:	00b80000 	adcseq	r0, r8, r0
     8f0:	b8070000 	stmdalt	r7, {}	; <UNPREDICTABLE>
     8f4:	00000000 	andeq	r0, r0, r0
     8f8:	00c50409 	sbceq	r0, r5, r9, lsl #8
     8fc:	01030000 	mrseq	r0, (UNDEF: 3)
     900:	00002408 	andeq	r2, r0, r8, lsl #8
     904:	00be0400 	adcseq	r0, lr, r0, lsl #8
     908:	e6080000 	str	r0, [r8], -r0
     90c:	02000003 	andeq	r0, r0, #3
     910:	00d60e21 	sbcseq	r0, r6, r1, lsr #28
     914:	04090000 	streq	r0, [r9], #-0
     918:	000000a9 	andeq	r0, r0, r9, lsr #1
     91c:	5401070a 	strpl	r0, [r1], #-1802	; 0xfffff8f6
     920:	04000000 	streq	r0, [r0], #-0
     924:	011b0e0c 	tsteq	fp, ip, lsl #28
     928:	700b0000 	andvc	r0, fp, r0
     92c:	00000003 	andeq	r0, r0, r3
     930:	0002920b 	andeq	r9, r2, fp, lsl #4
     934:	b90b0100 	stmdblt	fp, {r8}
     938:	04000002 	streq	r0, [r0], #-2
     93c:	0003410b 	andeq	r4, r3, fp, lsl #2
     940:	ec0b0500 	cfstr32	mvfx0, [fp], {-0}
     944:	06000002 	streq	r0, [r0], -r2
     948:	0002fb0b 	andeq	pc, r2, fp, lsl #22
     94c:	5a0b0700 	bpl	2c2554 <__bss_end__+0x2b8eec>
     950:	03000003 	movweq	r0, #3
     954:	00030a0b 	andeq	r0, r3, fp, lsl #20
     958:	05000200 	streq	r0, [r0, #-512]	; 0xfffffe00
     95c:	00000326 	andeq	r0, r0, r6, lsr #6
     960:	dc031504 	cfstr32le	mvfx1, [r3], {4}
     964:	0c000000 	stceq	0, cr0, [r0], {-0}
     968:	00000269 	andeq	r0, r0, r9, ror #4
     96c:	33170e01 	tstcc	r7, #1, 28
     970:	1c000000 	stcne	0, cr0, [r0], {-0}
     974:	0c202000 	stceq	0, cr2, [r0], #-0
     978:	0000025f 	andeq	r0, r0, pc, asr r2
     97c:	33170f01 	tstcc	r7, #1, 30
     980:	28000000 	stmdacs	r0, {}	; <UNPREDICTABLE>
     984:	0c202000 	stceq	0, cr2, [r0], #-0
     988:	00000337 	andeq	r0, r0, r7, lsr r3
     98c:	33171001 	tstcc	r7, #1
     990:	34000000 	strcc	r0, [r0], #-0
     994:	0c202000 	stceq	0, cr2, [r0], #-0
     998:	00000287 	andeq	r0, r0, r7, lsl #5
     99c:	33171101 	tstcc	r7, #1073741824	; 0x40000000
     9a0:	00000000 	andeq	r0, r0, r0
     9a4:	0d202000 	stceq	0, cr2, [r0, #-0]
     9a8:	0000018f 	andeq	r0, r0, pc, lsl #3
     9ac:	25056401 	strcs	r6, [r5, #-1025]	; 0xfffffbff
     9b0:	cc000000 	stcgt	0, cr0, [r0], {-0}
     9b4:	34000083 	strcc	r0, [r0], #-131	; 0xffffff7d
     9b8:	01000000 	mrseq	r0, (UNDEF: 0)
     9bc:	0001cf9c 	muleq	r1, ip, pc	; <UNPREDICTABLE>
     9c0:	69700e00 	ldmdbvs	r0!, {r9, sl, fp}^
     9c4:	6401006e 	strvs	r0, [r1], #-110	; 0xffffff92
     9c8:	00002c18 	andeq	r2, r0, r8, lsl ip
     9cc:	0001e700 	andeq	lr, r1, r0, lsl #14
     9d0:	0001e300 	andeq	lr, r1, r0, lsl #6
     9d4:	00760f00 	rsbseq	r0, r6, r0, lsl #30
     9d8:	2c0e6501 	cfstr32cs	mvfx6, [lr], {1}
     9dc:	09000000 	stmdbeq	r0, {}	; <UNPREDICTABLE>
     9e0:	05000002 	streq	r0, [r0, #-2]
     9e4:	10000002 	andne	r0, r0, r2
     9e8:	000083d8 	ldrdeq	r8, [r0], -r8	; <UNPREDICTABLE>
     9ec:	00000439 	andeq	r0, r0, r9, lsr r4
     9f0:	000001bb 			; <UNDEFINED> instruction: 0x000001bb
     9f4:	02500111 	subseq	r0, r0, #1073741828	; 0x40000004
     9f8:	12000074 	andne	r0, r0, #116	; 0x74
     9fc:	000083e8 	andeq	r8, r0, r8, ror #7
     a00:	00000484 	andeq	r0, r0, r4, lsl #9
     a04:	05500111 	ldrbeq	r0, [r0, #-273]	; 0xfffffeef
     a08:	2000340c 	andcs	r3, r0, ip, lsl #8
     a0c:	13000020 	movwne	r0, #32
     a10:	000001c7 	andeq	r0, r0, r7, asr #3
     a14:	bc065d01 	stclt	13, cr5, [r6], {1}
     a18:	10000083 	andne	r0, r0, r3, lsl #1
     a1c:	01000000 	mrseq	r0, (UNDEF: 0)
     a20:	0002109c 	muleq	r2, ip, r0
     a24:	69700e00 	ldmdbvs	r0!, {r9, sl, fp}^
     a28:	5d01006e 	stcpl	0, cr0, [r1, #-440]	; 0xfffffe48
     a2c:	00002c1e 	andeq	r2, r0, lr, lsl ip
     a30:	00022d00 	andeq	r2, r2, r0, lsl #26
     a34:	00022900 	andeq	r2, r2, r0, lsl #18
     a38:	83c81200 	bichi	r1, r8, #0, 4
     a3c:	03600000 	cmneq	r0, #0
     a40:	01110000 	tsteq	r1, r0
     a44:	01f30350 	mvnseq	r0, r0, asr r3
     a48:	51011150 	tstpl	r1, r0, asr r1
     a4c:	00003001 	andeq	r3, r0, r1
     a50:	00021813 	andeq	r1, r2, r3, lsl r8
     a54:	06510100 	ldrbeq	r0, [r1], -r0, lsl #2
     a58:	000083a0 	andeq	r8, r0, r0, lsr #7
     a5c:	0000001c 	andeq	r0, r0, ip, lsl r0
     a60:	026b9c01 	rsbeq	r9, fp, #256	; 0x100
     a64:	700e0000 	andvc	r0, lr, r0
     a68:	01006e69 	tsteq	r0, r9, ror #28
     a6c:	002c1a51 	eoreq	r1, ip, r1, asr sl
     a70:	02560000 	subseq	r0, r6, #0
     a74:	024e0000 	subeq	r0, lr, #0
     a78:	760e0000 	strvc	r0, [lr], -r0
     a7c:	28510100 	ldmdacs	r1, {r8}^
     a80:	0000002c 	andeq	r0, r0, ip, lsr #32
     a84:	00000298 	muleq	r0, r8, r2
     a88:	00000290 	muleq	r0, r0, r2
     a8c:	0083b010 	addeq	fp, r3, r0, lsl r0
     a90:	0002c500 	andeq	ip, r2, r0, lsl #10
     a94:	00026100 	andeq	r6, r2, r0, lsl #2
     a98:	50011100 	andpl	r1, r1, r0, lsl #2
     a9c:	5001f303 	andpl	pc, r1, r3, lsl #6
     aa0:	83b81400 			; <UNDEFINED> instruction: 0x83b81400
     aa4:	026b0000 	rsbeq	r0, fp, #0
     aa8:	13000000 	movwne	r0, #0
     aac:	000001d6 	ldrdeq	r0, [r0], -r6
     ab0:	74064601 	strvc	r4, [r6], #-1537	; 0xfffff9ff
     ab4:	2c000083 	stccs	0, cr0, [r0], {131}	; 0x83
     ab8:	01000000 	mrseq	r0, (UNDEF: 0)
     abc:	0002c59c 	muleq	r2, ip, r5
     ac0:	69700e00 	ldmdbvs	r0!, {r9, sl, fp}^
     ac4:	4601006e 	strmi	r0, [r1], -lr, rrx
     ac8:	00002c1c 	andeq	r2, r0, ip, lsl ip
     acc:	0002d600 	andeq	sp, r2, r0, lsl #12
     ad0:	0002d200 	andeq	sp, r2, r0, lsl #4
     ad4:	83801000 	orrhi	r1, r0, #0
     ad8:	04390000 	ldrteq	r0, [r9], #-0
     adc:	02a90000 	adceq	r0, r9, #0
     ae0:	01110000 	tsteq	r1, r0
     ae4:	00740250 	rsbseq	r0, r4, r0, asr r2
     ae8:	83981200 	orrshi	r1, r8, #0, 4
     aec:	04900000 	ldreq	r0, [r0], #0
     af0:	01110000 	tsteq	r1, r0
     af4:	280c0550 	stmdacs	ip, {r4, r6, r8, sl}
     af8:	11202000 			; <UNDEFINED> instruction: 0x11202000
     afc:	31045101 	tstcc	r4, r1, lsl #2
     b00:	00240074 	eoreq	r0, r4, r4, ror r0
     b04:	02531300 	subseq	r1, r3, #0, 6
     b08:	3b010000 	blcc	40b10 <__bss_end__+0x374a8>
     b0c:	00834806 	addeq	r4, r3, r6, lsl #16
     b10:	00002c00 	andeq	r2, r0, r0, lsl #24
     b14:	1f9c0100 	svcne	0x009c0100
     b18:	0e000003 	cdpeq	0, 0, cr0, cr0, cr3, {0}
     b1c:	006e6970 	rsbeq	r6, lr, r0, ror r9
     b20:	2c1b3b01 			; <UNDEFINED> instruction: 0x2c1b3b01
     b24:	f8000000 			; <UNDEFINED> instruction: 0xf8000000
     b28:	f4000002 	vst4.8	{d0-d3}, [r0], r2
     b2c:	10000002 	andne	r0, r0, r2
     b30:	00008354 	andeq	r8, r0, r4, asr r3
     b34:	00000439 	andeq	r0, r0, r9, lsr r4
     b38:	00000303 	andeq	r0, r0, r3, lsl #6
     b3c:	02500111 	subseq	r0, r0, #1073741828	; 0x40000004
     b40:	12000074 	andne	r0, r0, #116	; 0x74
     b44:	0000836c 	andeq	r8, r0, ip, ror #6
     b48:	00000490 	muleq	r0, r0, r4
     b4c:	05500111 	ldrbeq	r0, [r0, #-273]	; 0xfffffeef
     b50:	20001c0c 	andcs	r1, r0, ip, lsl #24
     b54:	51011120 	tstpl	r1, r0, lsr #2
     b58:	00743104 	rsbseq	r3, r4, r4, lsl #2
     b5c:	13000024 	movwne	r0, #36	; 0x24
     b60:	00000199 	muleq	r0, r9, r1
     b64:	38063301 	stmdacc	r6, {r0, r8, r9, ip, sp}
     b68:	10000083 	andne	r0, r0, r3, lsl #1
     b6c:	01000000 	mrseq	r0, (UNDEF: 0)
     b70:	0003609c 	muleq	r3, ip, r0
     b74:	69700e00 	ldmdbvs	r0!, {r9, sl, fp}^
     b78:	3301006e 	movwcc	r0, #4206	; 0x106e
     b7c:	00002c1f 	andeq	r2, r0, pc, lsl ip
     b80:	00031a00 	andeq	r1, r3, r0, lsl #20
     b84:	00031600 	andeq	r1, r3, r0, lsl #12
     b88:	83441200 	movthi	r1, #16896	; 0x4200
     b8c:	03600000 	cmneq	r0, #0
     b90:	01110000 	tsteq	r1, r0
     b94:	01f30350 	mvnseq	r0, r0, asr r3
     b98:	51011150 	tstpl	r1, r0, asr r1
     b9c:	00003101 	andeq	r3, r0, r1, lsl #2
     ba0:	00038013 	andeq	r8, r3, r3, lsl r0
     ba4:	061f0100 	ldreq	r0, [pc], -r0, lsl #2
     ba8:	000082d0 	ldrdeq	r8, [r0], -r0
     bac:	00000068 	andeq	r0, r0, r8, rrx
     bb0:	04339c01 	ldrteq	r9, [r3], #-3073	; 0xfffff3ff
     bb4:	700e0000 	andvc	r0, lr, r0
     bb8:	01006e69 	tsteq	r0, r9, ror #28
     bbc:	002c211f 	eoreq	r2, ip, pc, lsl r1
     bc0:	03410000 	movteq	r0, #4096	; 0x1000
     bc4:	033b0000 	teqeq	fp, #0
     bc8:	89150000 	ldmdbhi	r5, {}	; <UNPREDICTABLE>
     bcc:	01000003 	tsteq	r0, r3
     bd0:	011b321f 	tsteq	fp, pc, lsl r2
     bd4:	03710000 	cmneq	r1, #0
     bd8:	036d0000 	cmneq	sp, #0
     bdc:	320c0000 	andcc	r0, ip, #0
     be0:	01000003 	tsteq	r0, r3
     be4:	007c0f26 	rsbseq	r0, ip, r6, lsr #30
     be8:	00000000 	andeq	r0, r0, r0
     bec:	500c2020 	andpl	r2, ip, r0, lsr #32
     bf0:	01000003 	tsteq	r0, r3
     bf4:	04331427 	ldrteq	r1, [r3], #-1063	; 0xfffffbd9
     bf8:	00000000 	andeq	r0, r0, r0
     bfc:	92162020 	andsls	r2, r6, #32
     c00:	01000003 	tsteq	r0, r3
     c04:	002c1228 	eoreq	r1, ip, r8, lsr #4
     c08:	03940000 	orrseq	r0, r4, #0
     c0c:	03920000 	orrseq	r0, r2, #0
     c10:	69160000 	ldmdbvs	r6, {}	; <UNPREDICTABLE>
     c14:	01000003 	tsteq	r0, r3
     c18:	002c1229 	eoreq	r1, ip, r9, lsr #4
     c1c:	03a90000 			; <UNDEFINED> instruction: 0x03a90000
     c20:	03a70000 			; <UNDEFINED> instruction: 0x03a70000
     c24:	1d160000 	ldcne	0, cr0, [r6, #-0]
     c28:	01000002 	tsteq	r0, r2
     c2c:	002c122a 	eoreq	r1, ip, sl, lsr #4
     c30:	03c00000 	biceq	r0, r0, #0
     c34:	03bc0000 			; <UNDEFINED> instruction: 0x03bc0000
     c38:	e0100000 	ands	r0, r0, r0
     c3c:	39000082 	stmdbcc	r0, {r1, r7}
     c40:	0e000004 	cdpeq	0, 0, cr0, cr0, cr4, {0}
     c44:	11000004 	tstne	r0, r4
     c48:	74025001 	strvc	r5, [r2], #-1
     c4c:	1c100000 	ldcne	0, cr0, [r0], {-0}
     c50:	84000083 	strhi	r0, [r0], #-131	; 0xffffff7d
     c54:	22000004 	andcs	r0, r0, #4
     c58:	11000004 	tstne	r0, r4
     c5c:	76025001 	strvc	r5, [r2], -r1
     c60:	30120000 	andscc	r0, r2, r0
     c64:	90000083 	andls	r0, r0, r3, lsl #1
     c68:	11000004 	tstne	r0, r4
     c6c:	76025001 	strvc	r5, [r2], -r1
     c70:	09000000 	stmdbeq	r0, {}	; <UNPREDICTABLE>
     c74:	00002c04 	andeq	r2, r0, r4, lsl #24
     c78:	02730d00 	rsbseq	r0, r3, #0, 26
     c7c:	19010000 	stmdbne	r1, {}	; <UNPREDICTABLE>
     c80:	00002505 	andeq	r2, r0, r5, lsl #10
     c84:	0082bc00 	addeq	fp, r2, r0, lsl #24
     c88:	00001400 	andeq	r1, r0, r0, lsl #8
     c8c:	689c0100 	ldmvs	ip, {r8}
     c90:	0e000004 	cdpeq	0, 0, cr0, cr0, cr4, {0}
     c94:	006e6970 	rsbeq	r6, lr, r0, ror r9
     c98:	2c181901 			; <UNDEFINED> instruction: 0x2c181901
     c9c:	ea000000 	b	ca4 <__code_start__-0x735c>
     ca0:	e6000003 	str	r0, [r0], -r3
     ca4:	00000003 	andeq	r0, r0, r3
     ca8:	0002a317 	andeq	sl, r2, r7, lsl r3
     cac:	18b10200 	ldmne	r1!, {r9}
     cb0:	00000062 	andeq	r0, r0, r2, rrx
     cb4:	00048403 	andeq	r8, r4, r3, lsl #8
     cb8:	00781800 	rsbseq	r1, r8, r0, lsl #16
     cbc:	622bb102 	eorvs	fp, fp, #-2147483648	; 0x80000000
     cc0:	00000000 	andeq	r0, r0, r0
     cc4:	0002b319 	andeq	fp, r2, r9, lsl r3
     cc8:	0002b300 	andeq	fp, r2, r0, lsl #6
     ccc:	0ac20200 	beq	ff0814d4 <__bss_end__+0xff077e6c>
     cd0:	0002ad19 	andeq	sl, r2, r9, lsl sp
     cd4:	0002ad00 	andeq	sl, r2, r0, lsl #26
     cd8:	06ad0200 	strteq	r0, [sp], r0, lsl #4
     cdc:	00019d00 	andeq	r9, r1, r0, lsl #26
     ce0:	09000400 	stmdbeq	r0, {sl}
     ce4:	04000004 	streq	r0, [r0], #-4
     ce8:	0000bb01 	andeq	fp, r0, r1, lsl #22
     cec:	03c30c00 	biceq	r0, r3, #0, 24
     cf0:	02c80000 	sbceq	r0, r8, #0
     cf4:	84000000 	strhi	r0, [r0], #-0
     cf8:	00580000 	subseq	r0, r8, r0
     cfc:	05180000 	ldreq	r0, [r8, #-0]
     d00:	af020000 	svcge	0x00020000
     d04:	02000003 	andeq	r0, r0, #3
     d08:	00311b28 	eorseq	r1, r1, r8, lsr #22
     d0c:	d3030000 	movwle	r0, #12288	; 0x3000
     d10:	04000003 	streq	r0, [r0], #-3
     d14:	00480004 	subeq	r0, r8, r4
     d18:	be040000 	cdplt	0, 0, cr0, cr4, cr0, {0}
     d1c:	48000003 	stmdami	r0, {r0, r1}
     d20:	00000000 	andeq	r0, r0, r0
     d24:	02040500 	andeq	r0, r4, #0, 10
     d28:	000003d5 	ldrdeq	r0, [r0], -r5
     d2c:	25186302 	ldrcs	r6, [r8, #-770]	; 0xfffffcfe
     d30:	06000000 	streq	r0, [r0], -r0
     d34:	6e690504 	cdpvs	5, 6, cr0, cr9, cr4, {0}
     d38:	04070074 	streq	r0, [r7], #-116	; 0xffffff8c
     d3c:	00004607 	andeq	r4, r0, r7, lsl #12
     d40:	06010700 	streq	r0, [r1], -r0, lsl #14
     d44:	0000001d 	andeq	r0, r0, sp, lsl r0
     d48:	6d050207 	sfmvs	f0, 4, [r5, #-28]	; 0xffffffe4
     d4c:	07000000 	streq	r0, [r0, -r0]
     d50:	00580504 	subseq	r0, r8, r4, lsl #10
     d54:	08070000 	stmdaeq	r7, {}	; <UNPREDICTABLE>
     d58:	00005305 	andeq	r5, r0, r5, lsl #6
     d5c:	08010700 	stmdaeq	r1, {r8, r9, sl}
     d60:	0000001b 	andeq	r0, r0, fp, lsl r0
     d64:	29070207 	stmdbcs	r7, {r0, r1, r2, r9}
     d68:	07000000 	streq	r0, [r0, -r0]
     d6c:	00410704 	subeq	r0, r1, r4, lsl #14
     d70:	08070000 	stmdaeq	r7, {}	; <UNPREDICTABLE>
     d74:	00003c07 	andeq	r3, r0, r7, lsl #24
     d78:	00560800 	subseq	r0, r6, r0, lsl #16
     d7c:	00ab0000 	adceq	r0, fp, r0
     d80:	56090000 	strpl	r0, [r9], -r0
     d84:	00000000 	andeq	r0, r0, r0
     d88:	0000610a 	andeq	r6, r0, sl, lsl #2
     d8c:	0e1c0300 	cdpeq	3, 1, cr0, cr12, cr0, {0}
     d90:	000000b7 	strheq	r0, [r0], -r7
     d94:	009c040b 	addseq	r0, ip, fp, lsl #8
     d98:	56080000 	strpl	r0, [r8], -r0
     d9c:	cc000000 	stcgt	0, cr0, [r0], {-0}
     da0:	09000000 	stmdbeq	r0, {}	; <UNPREDICTABLE>
     da4:	000000cc 	andeq	r0, r0, ip, asr #1
     da8:	d9040b00 	stmdble	r4, {r8, r9, fp}
     dac:	07000000 	streq	r0, [r0, -r0]
     db0:	00240801 	eoreq	r0, r4, r1, lsl #16
     db4:	d20c0000 	andle	r0, ip, #0
     db8:	0a000000 	beq	dc0 <__code_start__-0x7240>
     dbc:	000003e6 	andeq	r0, r0, r6, ror #7
     dc0:	ea0e2103 	b	3891d4 <__bss_end__+0x37fb6c>
     dc4:	0b000000 	bleq	dcc <__code_start__-0x7234>
     dc8:	0000bd04 	andeq	fp, r0, r4, lsl #26
     dcc:	03a80d00 			; <UNDEFINED> instruction: 0x03a80d00
     dd0:	06010000 	streq	r0, [r1], -r0
     dd4:	00005605 	andeq	r5, r0, r5, lsl #12
     dd8:	00840000 	addeq	r0, r4, r0
     ddc:	00005800 	andeq	r5, r0, r0, lsl #16
     de0:	839c0100 	orrshi	r0, ip, #0, 2
     de4:	0e000001 	cdpeq	0, 0, cr0, cr0, cr1, {0}
     de8:	00746d66 	rsbseq	r6, r4, r6, ror #26
     dec:	cc180601 	ldcgt	6, cr0, [r8], {1}
     df0:	02000000 	andeq	r0, r0, #0
     df4:	100f7091 	mulne	pc, r1, r0	; <UNPREDICTABLE>
     df8:	00667562 	rsbeq	r7, r6, r2, ror #10
     dfc:	83110801 	tsthi	r1, #65536	; 0x10000
     e00:	05000001 	streq	r0, [r0, #-1]
     e04:	00926803 	addseq	r6, r2, r3, lsl #16
     e08:	03a01100 	moveq	r1, #0, 2
     e0c:	09010000 	stmdbeq	r1, {}	; <UNPREDICTABLE>
     e10:	00004a0d 	andeq	r4, r0, sp, lsl #20
     e14:	5c910200 	lfmpl	f0, 4, [r1], {0}
     e18:	007a7312 	rsbseq	r7, sl, r2, lsl r3
     e1c:	560d0c01 	strpl	r0, [sp], -r1, lsl #24
     e20:	11000000 	mrsne	r0, (UNDEF: 0)
     e24:	0b000004 	bleq	e3c <__code_start__-0x71c4>
     e28:	13000004 	movwne	r0, #4
     e2c:	00008428 	andeq	r8, r0, r8, lsr #8
     e30:	00000194 	muleq	r0, r4, r1
     e34:	00000176 	andeq	r0, r0, r6, ror r1
     e38:	02500114 	subseq	r0, r0, #20, 2
     e3c:	01140075 	tsteq	r4, r5, ror r0
     e40:	000a0351 	andeq	r0, sl, r1, asr r3
     e44:	52011404 	andpl	r1, r1, #4, 8	; 0x4000000
     e48:	06489103 	strbeq	r9, [r8], -r3, lsl #2
     e4c:	02530114 	subseq	r0, r3, #20, 2
     e50:	15004c91 	strne	r4, [r0, #-3217]	; 0xfffff36f
     e54:	0000843c 	andeq	r8, r0, ip, lsr r4
     e58:	02500114 	subseq	r0, r0, #20, 2
     e5c:	00000075 	andeq	r0, r0, r5, ror r0
     e60:	0000d216 	andeq	sp, r0, r6, lsl r2
     e64:	00019400 	andeq	r9, r1, r0, lsl #8
     e68:	005d1700 	subseq	r1, sp, r0, lsl #14
     e6c:	03ff0000 	mvnseq	r0, #0
     e70:	03a51800 			; <UNDEFINED> instruction: 0x03a51800
     e74:	03a50000 			; <UNDEFINED> instruction: 0x03a50000
     e78:	02050000 	andeq	r0, r5, #0
     e7c:	00f30005 	rscseq	r0, r3, r5
     e80:	00040000 	andeq	r0, r4, r0
     e84:	0000054b 	andeq	r0, r0, fp, asr #10
     e88:	00bb0104 	adcseq	r0, fp, r4, lsl #2
     e8c:	eb0c0000 	bl	300e94 <__bss_end__+0x2f782c>
     e90:	c8000003 	stmdagt	r0, {r0, r1}
     e94:	58000002 	stmdapl	r0, {r1}
     e98:	34000084 	strcc	r0, [r0], #-132	; 0xffffff7c
     e9c:	fb000000 	blx	ea6 <__code_start__-0x715a>
     ea0:	02000005 	andeq	r0, r0, #5
     ea4:	6e690504 	cdpvs	5, 6, cr0, cr9, cr4, {0}
     ea8:	04030074 	streq	r0, [r3], #-116	; 0xffffff8c
     eac:	00004607 	andeq	r4, r0, r7, lsl #12
     eb0:	06010300 	streq	r0, [r1], -r0, lsl #6
     eb4:	0000001d 	andeq	r0, r0, sp, lsl r0
     eb8:	6d050203 	sfmvs	f0, 4, [r5, #-12]
     ebc:	03000000 	movweq	r0, #0
     ec0:	00580504 	subseq	r0, r8, r4, lsl #10
     ec4:	08030000 	stmdaeq	r3, {}	; <UNPREDICTABLE>
     ec8:	00005305 	andeq	r5, r0, r5, lsl #6
     ecc:	08010300 	stmdaeq	r1, {r8, r9}
     ed0:	0000001b 	andeq	r0, r0, fp, lsl r0
     ed4:	29070203 	stmdbcs	r7, {r0, r1, r9}
     ed8:	03000000 	movweq	r0, #0
     edc:	00410704 	subeq	r0, r1, r4, lsl #14
     ee0:	08030000 	stmdaeq	r3, {}	; <UNPREDICTABLE>
     ee4:	00003c07 	andeq	r3, r0, r7, lsl #24
     ee8:	00250400 	eoreq	r0, r5, r0, lsl #8
     eec:	007a0000 	rsbseq	r0, sl, r0
     ef0:	25050000 	strcs	r0, [r5, #-0]
     ef4:	00000000 	andeq	r0, r0, r0
     ef8:	00006106 	andeq	r6, r0, r6, lsl #2
     efc:	0e1c0200 	cdpeq	2, 1, cr0, cr12, cr0, {0}
     f00:	00000086 	andeq	r0, r0, r6, lsl #1
     f04:	006b0407 	rsbeq	r0, fp, r7, lsl #8
     f08:	25040000 	strcs	r0, [r4, #-0]
     f0c:	9b000000 	blls	f14 <__code_start__-0x70ec>
     f10:	05000000 	streq	r0, [r0, #-0]
     f14:	0000009b 	muleq	r0, fp, r0
     f18:	a8040700 	stmdage	r4, {r8, r9, sl}
     f1c:	03000000 	movweq	r0, #0
     f20:	00240801 	eoreq	r0, r4, r1, lsl #16
     f24:	a1080000 	mrsge	r0, (UNDEF: 8)
     f28:	06000000 	streq	r0, [r0], -r0
     f2c:	000003e6 	andeq	r0, r0, r6, ror #7
     f30:	b90e2102 	stmdblt	lr, {r1, r8, sp}
     f34:	07000000 	streq	r0, [r0, -r0]
     f38:	00008c04 	andeq	r8, r0, r4, lsl #24
     f3c:	00ad0900 	adceq	r0, sp, r0, lsl #18
     f40:	0c010000 	stceq	0, cr0, [r1], {-0}
     f44:	60030507 	andvs	r0, r3, r7, lsl #10
     f48:	0a000092 	beq	1198 <__code_start__-0x6e68>
     f4c:	000003dd 	ldrdeq	r0, [r0], -sp
     f50:	25050401 	strcs	r0, [r5, #-1025]	; 0xfffffbff
     f54:	58000000 	stmdapl	r0, {}	; <UNPREDICTABLE>
     f58:	34000084 	strcc	r0, [r0], #-132	; 0xffffff7c
     f5c:	01000000 	mrseq	r0, (UNDEF: 0)
     f60:	00700b9c 			; <UNDEFINED> instruction: 0x00700b9c
     f64:	9b1f0401 	blls	7c1f70 <__bss_end__+0x7b8908>
     f68:	3e000000 	cdpcc	0, 0, cr0, cr0, cr0, {0}
     f6c:	3a000004 	bcc	f84 <__code_start__-0x707c>
     f70:	00000004 	andeq	r0, r0, r4
     f74:	00014900 	andeq	r4, r1, r0, lsl #18
     f78:	e9000400 	stmdb	r0, {sl}
     f7c:	04000005 	streq	r0, [r0], #-5
     f80:	0000bb01 	andeq	fp, r0, r1, lsl #22
     f84:	04170c00 	ldreq	r0, [r7], #-3072	; 0xfffff400
     f88:	02c80000 	sbceq	r0, r8, #0
     f8c:	848c0000 	strhi	r0, [ip], #0
     f90:	003c0000 	eorseq	r0, ip, r0
     f94:	06a60000 	strteq	r0, [r6], r0
     f98:	04020000 	streq	r0, [r2], #-0
     f9c:	746e6905 	strbtvc	r6, [lr], #-2309	; 0xfffff6fb
     fa0:	07040300 	streq	r0, [r4, -r0, lsl #6]
     fa4:	00000046 	andeq	r0, r0, r6, asr #32
     fa8:	1d060103 	stfnes	f0, [r6, #-12]
     fac:	03000000 	movweq	r0, #0
     fb0:	006d0502 	rsbeq	r0, sp, r2, lsl #10
     fb4:	04030000 	streq	r0, [r3], #-0
     fb8:	00005805 	andeq	r5, r0, r5, lsl #16
     fbc:	05080300 	streq	r0, [r8, #-768]	; 0xfffffd00
     fc0:	00000053 	andeq	r0, r0, r3, asr r0
     fc4:	1b080103 	blne	2013d8 <__bss_end__+0x1f7d70>
     fc8:	03000000 	movweq	r0, #0
     fcc:	00290702 	eoreq	r0, r9, r2, lsl #14
     fd0:	04030000 	streq	r0, [r3], #-0
     fd4:	00004107 	andeq	r4, r0, r7, lsl #2
     fd8:	07080300 	streq	r0, [r8, -r0, lsl #6]
     fdc:	0000003c 	andeq	r0, r0, ip, lsr r0
     fe0:	00002504 	andeq	r2, r0, r4, lsl #10
     fe4:	00007a00 	andeq	r7, r0, r0, lsl #20
     fe8:	00250500 	eoreq	r0, r5, r0, lsl #10
     fec:	06000000 	streq	r0, [r0], -r0
     ff0:	00000061 	andeq	r0, r0, r1, rrx
     ff4:	860e1c02 	strhi	r1, [lr], -r2, lsl #24
     ff8:	07000000 	streq	r0, [r0, -r0]
     ffc:	00006b04 	andeq	r6, r0, r4, lsl #22
    1000:	00250400 	eoreq	r0, r5, r0, lsl #8
    1004:	009b0000 	addseq	r0, fp, r0
    1008:	9b050000 	blls	141010 <__bss_end__+0x1379a8>
    100c:	00000000 	andeq	r0, r0, r0
    1010:	00a80407 	adceq	r0, r8, r7, lsl #8
    1014:	01030000 	mrseq	r0, (UNDEF: 3)
    1018:	00002408 	andeq	r2, r0, r8, lsl #8
    101c:	00a10800 	adceq	r0, r1, r0, lsl #16
    1020:	e6060000 	str	r0, [r6], -r0
    1024:	02000003 	andeq	r0, r0, #3
    1028:	00b90e21 	adcseq	r0, r9, r1, lsr #28
    102c:	04070000 	streq	r0, [r7], #-0
    1030:	0000008c 	andeq	r0, r0, ip, lsl #1
    1034:	00007a09 	andeq	r7, r0, r9, lsl #20
    1038:	07060100 	streq	r0, [r6, -r0, lsl #2]
    103c:	92640305 	rsbls	r0, r4, #335544320	; 0x14000000
    1040:	0a0a0000 	beq	281048 <__bss_end__+0x2779e0>
    1044:	01000004 	tsteq	r0, r4
    1048:	84b8060b 	ldrthi	r0, [r8], #1547	; 0x60b
    104c:	00100000 	andseq	r0, r0, r0
    1050:	9c010000 	stcls	0, cr0, [r1], {-0}
    1054:	000000f1 	strdeq	r0, [r0], -r1
    1058:	0070660b 	rsbseq	r6, r0, fp, lsl #12
    105c:	86190b01 	ldrhi	r0, [r9], -r1, lsl #22
    1060:	01000000 	mrseq	r0, (UNDEF: 0)
    1064:	320c0050 	andcc	r0, ip, #80	; 0x50
    1068:	01000004 	tsteq	r0, r4
    106c:	84a00608 	strthi	r0, [r0], #1544	; 0x608
    1070:	00180000 	andseq	r0, r8, r0
    1074:	9c010000 	stcls	0, cr0, [r1], {-0}
    1078:	0003f90d 	andeq	pc, r3, sp, lsl #18
    107c:	0c030100 	stfeqs	f0, [r3], {-0}
    1080:	00000025 	andeq	r0, r0, r5, lsr #32
    1084:	0000848c 	andeq	r8, r0, ip, lsl #9
    1088:	00000014 	andeq	r0, r0, r4, lsl r0
    108c:	01409c01 	cmpeq	r0, r1, lsl #24
    1090:	630e0000 	movwvs	r0, #57344	; 0xe000
    1094:	21030100 	mrscs	r0, (UNDEF: 19)
    1098:	00000025 	andeq	r0, r0, r5, lsr #32
    109c:	00000460 	andeq	r0, r0, r0, ror #8
    10a0:	0000045c 	andeq	r0, r0, ip, asr r4
    10a4:	0084980f 	addeq	r9, r4, pc, lsl #16
    10a8:	00014000 	andeq	r4, r1, r0
    10ac:	50011000 	andpl	r1, r1, r0
    10b0:	00007402 	andeq	r7, r0, r2, lsl #8
    10b4:	04281100 	strteq	r1, [r8], #-256	; 0xffffff00
    10b8:	04280000 	strteq	r0, [r8], #-0
    10bc:	42020000 	andmi	r0, r2, #0
    10c0:	012f0006 			; <UNDEFINED> instruction: 0x012f0006
    10c4:	00040000 	andeq	r0, r4, r0
    10c8:	000006f8 	strdeq	r0, [r0], -r8
    10cc:	00bb0104 	adcseq	r0, fp, r4, lsl #2
    10d0:	550c0000 	strpl	r0, [ip, #-0]
    10d4:	c8000004 	stmdagt	r0, {r2}
    10d8:	c8000002 	stmdagt	r0, {r1}
    10dc:	2c000084 	stccs	0, cr0, [r0], {132}	; 0x84
    10e0:	44000000 	strmi	r0, [r0], #-0
    10e4:	02000007 	andeq	r0, r0, #7
    10e8:	6e690504 	cdpvs	5, 6, cr0, cr9, cr4, {0}
    10ec:	04030074 	streq	r0, [r3], #-116	; 0xffffff8c
    10f0:	00004607 	andeq	r4, r0, r7, lsl #12
    10f4:	06010300 	streq	r0, [r1], -r0, lsl #6
    10f8:	0000001d 	andeq	r0, r0, sp, lsl r0
    10fc:	6d050203 	sfmvs	f0, 4, [r5, #-12]
    1100:	03000000 	movweq	r0, #0
    1104:	00580504 	subseq	r0, r8, r4, lsl #10
    1108:	08030000 	stmdaeq	r3, {}	; <UNPREDICTABLE>
    110c:	00005305 	andeq	r5, r0, r5, lsl #6
    1110:	08010300 	stmdaeq	r1, {r8, r9}
    1114:	0000001b 	andeq	r0, r0, fp, lsl r0
    1118:	29070203 	stmdbcs	r7, {r0, r1, r9}
    111c:	03000000 	movweq	r0, #0
    1120:	00410704 	subeq	r0, r1, r4, lsl #14
    1124:	08030000 	stmdaeq	r3, {}	; <UNPREDICTABLE>
    1128:	00003c07 	andeq	r3, r0, r7, lsl #24
    112c:	00250400 	eoreq	r0, r5, r0, lsl #8
    1130:	007a0000 	rsbseq	r0, sl, r0
    1134:	25050000 	strcs	r0, [r5, #-0]
    1138:	00000000 	andeq	r0, r0, r0
    113c:	00006106 	andeq	r6, r0, r6, lsl #2
    1140:	0e1c0200 	cdpeq	2, 1, cr0, cr12, cr0, {0}
    1144:	00000086 	andeq	r0, r0, r6, lsl #1
    1148:	006b0407 	rsbeq	r0, fp, r7, lsl #8
    114c:	25040000 	strcs	r0, [r4, #-0]
    1150:	9b000000 	blls	1158 <__code_start__-0x6ea8>
    1154:	05000000 	streq	r0, [r0, #-0]
    1158:	0000009b 	muleq	r0, fp, r0
    115c:	a8040700 	stmdage	r4, {r8, r9, sl}
    1160:	03000000 	movweq	r0, #0
    1164:	00240801 	eoreq	r0, r4, r1, lsl #16
    1168:	a1080000 	mrsge	r0, (UNDEF: 8)
    116c:	06000000 	streq	r0, [r0], -r0
    1170:	000003e6 	andeq	r0, r0, r6, ror #7
    1174:	b90e2102 	stmdblt	lr, {r1, r8, sp}
    1178:	07000000 	streq	r0, [r0, -r0]
    117c:	00008c04 	andeq	r8, r0, r4, lsl #24
    1180:	01b00900 	lslseq	r0, r0, #18
    1184:	04010000 	streq	r0, [r1], #-0
    1188:	0084c806 	addeq	ip, r4, r6, lsl #16
    118c:	00002c00 	andeq	r2, r0, r0, lsl #24
    1190:	0e9c0100 	fmleqe	f0, f4, f0
    1194:	0a000001 	beq	11a0 <__code_start__-0x6e60>
    1198:	000084dc 	ldrdeq	r8, [r0], -ip
    119c:	000000e8 	andeq	r0, r0, r8, ror #1
    11a0:	0550010b 	ldrbeq	r0, [r0, #-267]	; 0xfffffef5
    11a4:	0090e803 	addseq	lr, r0, r3, lsl #16
    11a8:	e00c0000 	and	r0, ip, r0
    11ac:	0e000084 	cdpeq	0, 0, cr0, cr0, cr4, {4}
    11b0:	0d000001 	stceq	0, cr0, [r0, #-4]
    11b4:	000084e8 	andeq	r8, r0, r8, ror #9
    11b8:	0000011a 	andeq	r0, r0, sl, lsl r1
    11bc:	00000104 	andeq	r0, r0, r4, lsl #2
    11c0:	0150010b 	cmpeq	r0, fp, lsl #2
    11c4:	ec0c003a 	stc	0, cr0, [ip], {58}	; 0x3a
    11c8:	26000084 	strcs	r0, [r0], -r4, lsl #1
    11cc:	00000001 	andeq	r0, r0, r1
    11d0:	0004700e 	andeq	r7, r4, lr
    11d4:	00047000 	andeq	r7, r4, r0
    11d8:	064d0200 	strbeq	r0, [sp], -r0, lsl #4
    11dc:	00044c0e 	andeq	r4, r4, lr, lsl #24
    11e0:	00044c00 	andeq	r4, r4, r0, lsl #24
    11e4:	06580200 	ldrbeq	r0, [r8], -r0, lsl #4
    11e8:	0004410e 	andeq	r4, r4, lr, lsl #2
    11ec:	00044100 	andeq	r4, r4, r0, lsl #2
    11f0:	066b0200 	strbteq	r0, [fp], -r0, lsl #4
    11f4:	00018900 	andeq	r8, r1, r0, lsl #18
    11f8:	b8000400 	stmdalt	r0, {sl}
    11fc:	04000007 	streq	r0, [r0], #-7
    1200:	0000bb01 	andeq	fp, r0, r1, lsl #22
    1204:	04b40c00 	ldrteq	r0, [r4], #3072	; 0xc00
    1208:	02c80000 	sbceq	r0, r8, #0
    120c:	84f40000 	ldrbthi	r0, [r4], #0
    1210:	003c0000 	eorseq	r0, ip, r0
    1214:	07c90000 	strbeq	r0, [r9, r0]
    1218:	04020000 	streq	r0, [r2], #-0
    121c:	746e6905 	strbtvc	r6, [lr], #-2309	; 0xfffff6fb
    1220:	07040300 	streq	r0, [r4, -r0, lsl #6]
    1224:	00000046 	andeq	r0, r0, r6, asr #32
    1228:	1d060103 	stfnes	f0, [r6, #-12]
    122c:	03000000 	movweq	r0, #0
    1230:	006d0502 	rsbeq	r0, sp, r2, lsl #10
    1234:	04030000 	streq	r0, [r3], #-0
    1238:	00005805 	andeq	r5, r0, r5, lsl #16
    123c:	05080300 	streq	r0, [r8, #-768]	; 0xfffffd00
    1240:	00000053 	andeq	r0, r0, r3, asr r0
    1244:	1b080103 	blne	201658 <__bss_end__+0x1f7ff0>
    1248:	03000000 	movweq	r0, #0
    124c:	00290702 	eoreq	r0, r9, r2, lsl #14
    1250:	04030000 	streq	r0, [r3], #-0
    1254:	00004107 	andeq	r4, r0, r7, lsl #2
    1258:	07080300 	streq	r0, [r8, -r0, lsl #6]
    125c:	0000003c 	andeq	r0, r0, ip, lsr r0
    1260:	00002504 	andeq	r2, r0, r4, lsl #10
    1264:	00007a00 	andeq	r7, r0, r0, lsl #20
    1268:	00250500 	eoreq	r0, r5, r0, lsl #10
    126c:	06000000 	streq	r0, [r0], -r0
    1270:	00000061 	andeq	r0, r0, r1, rrx
    1274:	860e1c02 	strhi	r1, [lr], -r2, lsl #24
    1278:	07000000 	streq	r0, [r0, -r0]
    127c:	00006b04 	andeq	r6, r0, r4, lsl #22
    1280:	00250400 	eoreq	r0, r5, r0, lsl #8
    1284:	009b0000 	addseq	r0, fp, r0
    1288:	9b050000 	blls	141290 <__bss_end__+0x137c28>
    128c:	00000000 	andeq	r0, r0, r0
    1290:	00a80407 	adceq	r0, r8, r7, lsl #8
    1294:	01030000 	mrseq	r0, (UNDEF: 3)
    1298:	00002408 	andeq	r2, r0, r8, lsl #8
    129c:	00a10800 	adceq	r0, r1, r0, lsl #16
    12a0:	e6060000 	str	r0, [r6], -r0
    12a4:	02000003 	andeq	r0, r0, #3
    12a8:	00b90e21 	adcseq	r0, r9, r1, lsr #28
    12ac:	04070000 	streq	r0, [r7], #-0
    12b0:	0000008c 	andeq	r0, r0, ip, lsl #1
    12b4:	00048c09 	andeq	r8, r4, r9, lsl #24
    12b8:	06040100 	streq	r0, [r4], -r0, lsl #2
    12bc:	000084f4 	strdeq	r8, [r0], -r4
    12c0:	0000003c 	andeq	r0, r0, ip, lsr r0
    12c4:	01549c01 	cmpeq	r4, r1, lsl #24
    12c8:	7e060000 	cdpvc	0, 0, cr0, cr6, cr0, {0}
    12cc:	01000004 	tsteq	r0, r4
    12d0:	00251005 	eoreq	r1, r5, r5
    12d4:	c9060000 	stmdbgt	r6, {}	; <UNPREDICTABLE>
    12d8:	01000004 	tsteq	r0, r4
    12dc:	00251f05 	eoreq	r1, r5, r5, lsl #30
    12e0:	130a0000 	movwne	r0, #40960	; 0xa000
    12e4:	01000000 	mrseq	r0, (UNDEF: 0)
    12e8:	620b0706 	andvs	r0, fp, #1572864	; 0x180000
    12ec:	01007373 	tsteq	r0, r3, ror r3
    12f0:	01540a0a 	cmpeq	r4, sl, lsl #20
    12f4:	04840000 	streq	r0, [r4], #0
    12f8:	047e0000 	ldrbteq	r0, [lr], #-0
    12fc:	940c0000 	strls	r0, [ip], #-0
    1300:	01000004 	tsteq	r0, r4
    1304:	01540a0b 	cmpeq	r4, fp, lsl #20
    1308:	180d0000 	stmdane	sp, {}	; <UNPREDICTABLE>
    130c:	08000085 	stmdaeq	r0, {r0, r2, r7}
    1310:	2f000000 	svccs	0x00000000
    1314:	0e000001 	cdpeq	0, 0, cr0, cr0, cr1, {0}
    1318:	01006e69 	tsteq	r0, r9, ror #28
    131c:	002c0514 	eoreq	r0, ip, r4, lsl r5
    1320:	00010000 	andeq	r0, r1, r0
    1324:	0084fc0f 	addeq	pc, r4, pc, lsl #24
    1328:	00015a00 	andeq	r5, r1, r0, lsl #20
    132c:	85180f00 	ldrhi	r0, [r8, #-3840]	; 0xfffff100
    1330:	01670000 	cmneq	r7, r0
    1334:	240f0000 	strcs	r0, [pc], #-0	; 133c <__code_start__-0x6cc4>
    1338:	73000085 	movwvc	r0, #133	; 0x85
    133c:	0f000001 	svceq	0x00000001
    1340:	00008528 	andeq	r8, r0, r8, lsr #10
    1344:	00000180 	andeq	r0, r0, r0, lsl #3
    1348:	25040700 	strcs	r0, [r4, #-1792]	; 0xfffff900
    134c:	10000000 	andne	r0, r0, r0
    1350:	000004a6 	andeq	r0, r0, r6, lsr #9
    1354:	000004a6 	andeq	r0, r0, r6, lsr #9
    1358:	06013102 	streq	r3, [r1], -r2, lsl #2
    135c:	00049c11 	andeq	r9, r4, r1, lsl ip
    1360:	00049c00 	andeq	r9, r4, r0, lsl #24
    1364:	063b0200 	ldrteq	r0, [fp], -r0, lsl #4
    1368:	00001310 	andeq	r1, r0, r0, lsl r3
    136c:	00001300 	andeq	r1, r0, r0, lsl #6
    1370:	01050200 	mrseq	r0, SP_usr
    1374:	01b01106 	lslseq	r1, r6, #2
    1378:	01b00000 	movseq	r0, r0
    137c:	6e020000 	cdpvs	0, 0, cr0, cr2, cr0, {0}
    1380:	02360006 	eorseq	r0, r6, #6
    1384:	00040000 	andeq	r0, r4, r0
    1388:	000008b4 			; <UNDEFINED> instruction: 0x000008b4
    138c:	00bb0104 	adcseq	r0, fp, r4, lsl #2
    1390:	fb0c0000 	blx	30139a <__bss_end__+0x2f7d32>
    1394:	c8000004 	stmdagt	r0, {r2}
    1398:	18000002 	stmdane	r0, {r1}
    139c:	00000000 	andeq	r0, r0, r0
    13a0:	68000000 	stmdavs	r0, {}	; <UNPREDICTABLE>
    13a4:	02000008 	andeq	r0, r0, #8
    13a8:	6e690504 	cdpvs	5, 6, cr0, cr9, cr4, {0}
    13ac:	25030074 	strcs	r0, [r3, #-116]	; 0xffffff8c
    13b0:	04000000 	streq	r0, [r0], #-0
    13b4:	00460704 	subeq	r0, r6, r4, lsl #14
    13b8:	01040000 	mrseq	r0, (UNDEF: 4)
    13bc:	00001d06 	andeq	r1, r0, r6, lsl #26
    13c0:	05020400 	streq	r0, [r2, #-1024]	; 0xfffffc00
    13c4:	0000006d 	andeq	r0, r0, sp, rrx
    13c8:	58050404 	stmdapl	r5, {r2, sl}
    13cc:	04000000 	streq	r0, [r0], #-0
    13d0:	00530508 	subseq	r0, r3, r8, lsl #10
    13d4:	01040000 	mrseq	r0, (UNDEF: 4)
    13d8:	00001b08 	andeq	r1, r0, r8, lsl #22
    13dc:	07020400 	streq	r0, [r2, -r0, lsl #8]
    13e0:	00000029 	andeq	r0, r0, r9, lsr #32
    13e4:	41070404 	tstmi	r7, r4, lsl #8
    13e8:	04000000 	streq	r0, [r0], #-0
    13ec:	003c0708 	eorseq	r0, ip, r8, lsl #14
    13f0:	25050000 	strcs	r0, [r5, #-0]
    13f4:	7f000000 	svcvc	0x00000000
    13f8:	06000000 	streq	r0, [r0], -r0
    13fc:	00000025 	andeq	r0, r0, r5, lsr #32
    1400:	00610700 	rsbeq	r0, r1, r0, lsl #14
    1404:	1c020000 	stcne	0, cr0, [r2], {-0}
    1408:	00008b0e 	andeq	r8, r0, lr, lsl #22
    140c:	70040800 	andvc	r0, r4, r0, lsl #16
    1410:	05000000 	streq	r0, [r0, #-0]
    1414:	00000025 	andeq	r0, r0, r5, lsr #32
    1418:	000000a0 	andeq	r0, r0, r0, lsr #1
    141c:	0000a006 	andeq	sl, r0, r6
    1420:	04080000 	streq	r0, [r8], #-0
    1424:	000000ad 	andeq	r0, r0, sp, lsr #1
    1428:	24080104 	strcs	r0, [r8], #-260	; 0xfffffefc
    142c:	03000000 	movweq	r0, #0
    1430:	000000a6 	andeq	r0, r0, r6, lsr #1
    1434:	0003e607 	andeq	lr, r3, r7, lsl #12
    1438:	0e210200 	cdpeq	2, 2, cr0, cr1, cr0, {0}
    143c:	000000be 	strheq	r0, [r0], -lr
    1440:	00910408 	addseq	r0, r1, r8, lsl #8
    1444:	1f090000 	svcne	0x00090000
    1448:	01000005 	tsteq	r0, r5
    144c:	0031110d 	eorseq	r1, r1, sp, lsl #2
    1450:	410a0000 	mrsmi	r0, (UNDEF: 10)
    1454:	01000004 	tsteq	r0, r4
    1458:	855c061f 	ldrbhi	r0, [ip, #-1567]	; 0xfffff9e1
    145c:	00540000 	subseq	r0, r4, r0
    1460:	9c010000 	stcls	0, cr0, [r1], {-0}
    1464:	000001ae 	andeq	r0, r0, lr, lsr #3
    1468:	0005430b 	andeq	r4, r5, fp, lsl #6
    146c:	0f2c0100 	svceq	0x002c0100
    1470:	0000002c 	andeq	r0, r0, ip, lsr #32
    1474:	000004b1 			; <UNDEFINED> instruction: 0x000004b1
    1478:	000004af 	andeq	r0, r0, pc, lsr #9
    147c:	0004e40b 	andeq	lr, r4, fp, lsl #8
    1480:	0f2d0100 	svceq	0x002d0100
    1484:	0000002c 	andeq	r0, r0, ip, lsr #32
    1488:	000004cb 	andeq	r0, r0, fp, asr #9
    148c:	000004c9 	andeq	r0, r0, r9, asr #9
    1490:	0005100b 	andeq	r1, r5, fp
    1494:	0f2e0100 	svceq	0x002e0100
    1498:	0000002c 	andeq	r0, r0, ip, lsr #32
    149c:	000004e5 	andeq	r0, r0, r5, ror #9
    14a0:	000004e3 	andeq	r0, r0, r3, ror #9
    14a4:	00052a0b 	andeq	r2, r5, fp, lsl #20
    14a8:	0f2f0100 	svceq	0x002f0100
    14ac:	0000002c 	andeq	r0, r0, ip, lsr #32
    14b0:	000004fe 	strdeq	r0, [r0], -lr
    14b4:	000004fc 	strdeq	r0, [r0], -ip
    14b8:	0085640c 	addeq	r6, r5, ip, lsl #8
    14bc:	0001d900 	andeq	sp, r1, r0, lsl #18
    14c0:	85700c00 	ldrbhi	r0, [r0, #-3072]!	; 0xfffff400
    14c4:	02080000 	andeq	r0, r8, #0
    14c8:	740c0000 	strvc	r0, [ip], #-0
    14cc:	15000085 	strne	r0, [r0, #-133]	; 0xffffff7b
    14d0:	0d000002 	stceq	0, cr0, [r0, #-8]
    14d4:	0000857c 	andeq	r8, r0, ip, ror r5
    14d8:	00000221 	andeq	r0, r0, r1, lsr #4
    14dc:	00000164 	andeq	r0, r0, r4, ror #2
    14e0:	0150010e 	cmpeq	r0, lr, lsl #2
    14e4:	880d003a 	stmdahi	sp, {r1, r3, r4, r5}
    14e8:	2d000085 	stccs	0, cr0, [r0, #-532]	; 0xfffffdec
    14ec:	84000002 	strhi	r0, [r0], #-2
    14f0:	0e000001 	cdpeq	0, 0, cr0, cr0, cr1, {0}
    14f4:	0c055001 	stceq	0, cr5, [r5], {1}
    14f8:	20100024 	andscs	r0, r0, r4, lsr #32
    14fc:	0551010e 	ldrbeq	r0, [r1, #-270]	; 0xfffffef2
    1500:	0000010c 	andeq	r0, r0, ip, lsl #2
    1504:	940d005a 	strls	r0, [sp], #-90	; 0xffffffa6
    1508:	2d000085 	stccs	0, cr0, [r0, #-532]	; 0xfffffdec
    150c:	a4000002 	strge	r0, [r0], #-2
    1510:	0e000001 	cdpeq	0, 0, cr0, cr0, cr1, {0}
    1514:	0c055001 	stceq	0, cr5, [r5], {1}
    1518:	2010001c 	andscs	r0, r0, ip, lsl r0
    151c:	0551010e 	ldrbeq	r0, [r1, #-270]	; 0xfffffef2
    1520:	0000200c 	andeq	r2, r0, ip
    1524:	9c0c005a 	stcls	0, cr0, [ip], {90}	; 0x5a
    1528:	ae000085 	cdpge	0, 0, cr0, cr0, cr5, {4}
    152c:	00000001 	andeq	r0, r0, r1
    1530:	0004ec0f 	andeq	lr, r4, pc, lsl #24
    1534:	06170100 	ldreq	r0, [r7], -r0, lsl #2
    1538:	00008548 	andeq	r8, r0, r8, asr #10
    153c:	00000014 	andeq	r0, r0, r4, lsl r0
    1540:	01d99c01 	bicseq	r9, r9, r1, lsl #24
    1544:	4b0b0000 	blmi	2c154c <__bss_end__+0x2b7ee4>
    1548:	01000005 	tsteq	r0, r5
    154c:	00310e18 	eorseq	r0, r1, r8, lsl lr
    1550:	05190000 	ldreq	r0, [r9, #-0]
    1554:	05130000 	ldreq	r0, [r3, #-0]
    1558:	10000000 	andne	r0, r0, r0
    155c:	0000051c 	andeq	r0, r0, ip, lsl r5
    1560:	25050e01 	strcs	r0, [r5, #-3585]	; 0xfffff1ff
    1564:	30000000 	andcc	r0, r0, r0
    1568:	18000085 	stmdane	r0, {r0, r2, r7}
    156c:	01000000 	mrseq	r0, (UNDEF: 0)
    1570:	0002089c 	muleq	r2, ip, r8
    1574:	054b0b00 	strbeq	r0, [fp, #-2816]	; 0xfffff500
    1578:	0f010000 	svceq	0x00010000
    157c:	0000310e 	andeq	r3, r0, lr, lsl #2
    1580:	00054700 	andeq	r4, r5, r0, lsl #14
    1584:	00054300 	andeq	r4, r5, r0, lsl #6
    1588:	d5110000 	ldrle	r0, [r1, #-0]
    158c:	d5000004 	strle	r0, [r0, #-4]
    1590:	02000004 	andeq	r0, r0, #4
    1594:	12060136 	andne	r0, r6, #-2147483635	; 0x8000000d
    1598:	00000470 	andeq	r0, r0, r0, ror r4
    159c:	00000470 	andeq	r0, r0, r0, ror r4
    15a0:	12064d02 	andne	r4, r6, #2, 26	; 0x80
    15a4:	0000044c 	andeq	r0, r0, ip, asr #8
    15a8:	0000044c 	andeq	r0, r0, ip, asr #8
    15ac:	12065802 	andne	r5, r6, #131072	; 0x20000
    15b0:	000002ad 	andeq	r0, r0, sp, lsr #5
    15b4:	000002ad 	andeq	r0, r0, sp, lsr #5
    15b8:	0006ad02 	andeq	sl, r6, r2, lsl #26
    15bc:	000000ce 	andeq	r0, r0, lr, asr #1
    15c0:	09d90004 	ldmibeq	r9, {r2}^
    15c4:	01040000 	mrseq	r0, (UNDEF: 4)
    15c8:	000000bb 	strheq	r0, [r0], -fp
    15cc:	0005500c 	andeq	r5, r5, ip
    15d0:	0002c800 	andeq	ip, r2, r0, lsl #16
    15d4:	0085b000 	addeq	fp, r5, r0
    15d8:	00000400 	andeq	r0, r0, r0, lsl #8
    15dc:	00093b00 	andeq	r3, r9, r0, lsl #22
    15e0:	05040200 	streq	r0, [r4, #-512]	; 0xfffffe00
    15e4:	00746e69 	rsbseq	r6, r4, r9, ror #28
    15e8:	46070403 	strmi	r0, [r7], -r3, lsl #8
    15ec:	03000000 	movweq	r0, #0
    15f0:	001d0601 	andseq	r0, sp, r1, lsl #12
    15f4:	02030000 	andeq	r0, r3, #0
    15f8:	00006d05 	andeq	r6, r0, r5, lsl #26
    15fc:	05040300 	streq	r0, [r4, #-768]	; 0xfffffd00
    1600:	00000058 	andeq	r0, r0, r8, asr r0
    1604:	53050803 	movwpl	r0, #22531	; 0x5803
    1608:	03000000 	movweq	r0, #0
    160c:	001b0801 	andseq	r0, fp, r1, lsl #16
    1610:	02030000 	andeq	r0, r3, #0
    1614:	00002907 	andeq	r2, r0, r7, lsl #18
    1618:	07040300 	streq	r0, [r4, -r0, lsl #6]
    161c:	00000041 	andeq	r0, r0, r1, asr #32
    1620:	3c070803 	stccc	8, cr0, [r7], {3}
    1624:	04000000 	streq	r0, [r0], #-0
    1628:	00000025 	andeq	r0, r0, r5, lsr #32
    162c:	0000007a 	andeq	r0, r0, sl, ror r0
    1630:	00002505 	andeq	r2, r0, r5, lsl #10
    1634:	61060000 	mrsvs	r0, (UNDEF: 6)
    1638:	02000000 	andeq	r0, r0, #0
    163c:	00860e1c 	addeq	r0, r6, ip, lsl lr
    1640:	04070000 	streq	r0, [r7], #-0
    1644:	0000006b 	andeq	r0, r0, fp, rrx
    1648:	00002504 	andeq	r2, r0, r4, lsl #10
    164c:	00009b00 	andeq	r9, r0, r0, lsl #22
    1650:	009b0500 	addseq	r0, fp, r0, lsl #10
    1654:	07000000 	streq	r0, [r0, -r0]
    1658:	0000a804 	andeq	sl, r0, r4, lsl #16
    165c:	08010300 	stmdaeq	r1, {r8, r9}
    1660:	00000024 	andeq	r0, r0, r4, lsr #32
    1664:	0000a108 	andeq	sl, r0, r8, lsl #2
    1668:	03e60600 	mvneq	r0, #0, 12
    166c:	21020000 	mrscs	r0, (UNDEF: 2)
    1670:	0000b90e 	andeq	fp, r0, lr, lsl #18
    1674:	8c040700 	stchi	7, cr0, [r4], {-0}
    1678:	09000000 	stmdbeq	r0, {}	; <UNPREDICTABLE>
    167c:	000004d5 	ldrdeq	r0, [r0], -r5
    1680:	b0060301 	andlt	r0, r6, r1, lsl #6
    1684:	04000085 	streq	r0, [r0], #-133	; 0xffffff7b
    1688:	01000000 	mrseq	r0, (UNDEF: 0)
    168c:	00ce009c 	smulleq	r0, lr, ip, r0
    1690:	00040000 	andeq	r0, r4, r0
    1694:	00000a52 	andeq	r0, r0, r2, asr sl
    1698:	00bb0104 	adcseq	r0, fp, r4, lsl #2
    169c:	750c0000 	strvc	r0, [ip, #-0]
    16a0:	c8000005 	stmdagt	r0, {r0, r2}
    16a4:	b4000002 	strlt	r0, [r0], #-2
    16a8:	04000085 	streq	r0, [r0], #-133	; 0xffffff7b
    16ac:	cb000000 	blgt	16b4 <__code_start__-0x694c>
    16b0:	02000009 	andeq	r0, r0, #9
    16b4:	6e690504 	cdpvs	5, 6, cr0, cr9, cr4, {0}
    16b8:	04030074 	streq	r0, [r3], #-116	; 0xffffff8c
    16bc:	00004607 	andeq	r4, r0, r7, lsl #12
    16c0:	06010300 	streq	r0, [r1], -r0, lsl #6
    16c4:	0000001d 	andeq	r0, r0, sp, lsl r0
    16c8:	6d050203 	sfmvs	f0, 4, [r5, #-12]
    16cc:	03000000 	movweq	r0, #0
    16d0:	00580504 	subseq	r0, r8, r4, lsl #10
    16d4:	08030000 	stmdaeq	r3, {}	; <UNPREDICTABLE>
    16d8:	00005305 	andeq	r5, r0, r5, lsl #6
    16dc:	08010300 	stmdaeq	r1, {r8, r9}
    16e0:	0000001b 	andeq	r0, r0, fp, lsl r0
    16e4:	29070203 	stmdbcs	r7, {r0, r1, r9}
    16e8:	03000000 	movweq	r0, #0
    16ec:	00410704 	subeq	r0, r1, r4, lsl #14
    16f0:	08030000 	stmdaeq	r3, {}	; <UNPREDICTABLE>
    16f4:	00003c07 	andeq	r3, r0, r7, lsl #24
    16f8:	00250400 	eoreq	r0, r5, r0, lsl #8
    16fc:	007a0000 	rsbseq	r0, sl, r0
    1700:	25050000 	strcs	r0, [r5, #-0]
    1704:	00000000 	andeq	r0, r0, r0
    1708:	00006106 	andeq	r6, r0, r6, lsl #2
    170c:	0e1c0200 	cdpeq	2, 1, cr0, cr12, cr0, {0}
    1710:	00000086 	andeq	r0, r0, r6, lsl #1
    1714:	006b0407 	rsbeq	r0, fp, r7, lsl #8
    1718:	25040000 	strcs	r0, [r4, #-0]
    171c:	9b000000 	blls	1724 <__code_start__-0x68dc>
    1720:	05000000 	streq	r0, [r0, #-0]
    1724:	0000009b 	muleq	r0, fp, r0
    1728:	a8040700 	stmdage	r4, {r8, r9, sl}
    172c:	03000000 	movweq	r0, #0
    1730:	00240801 	eoreq	r0, r4, r1, lsl #16
    1734:	a1080000 	mrsge	r0, (UNDEF: 8)
    1738:	06000000 	streq	r0, [r0], -r0
    173c:	000003e6 	andeq	r0, r0, r6, ror #7
    1740:	b90e2102 	stmdblt	lr, {r1, r8, sp}
    1744:	07000000 	streq	r0, [r0, -r0]
    1748:	00008c04 	andeq	r8, r0, r4, lsl #24
    174c:	04a60900 	strteq	r0, [r6], #2304	; 0x900
    1750:	04010000 	streq	r0, [r1], #-0
    1754:	0085b406 	addeq	fp, r5, r6, lsl #8
    1758:	00000400 	andeq	r0, r0, r0, lsl #8
    175c:	009c0100 	addseq	r0, ip, r0, lsl #2
    1760:	0000024d 	andeq	r0, r0, sp, asr #4
    1764:	0acb0004 	beq	ff2c177c <__bss_end__+0xff2b8114>
    1768:	01040000 	mrseq	r0, (UNDEF: 4)
    176c:	000000bb 	strheq	r0, [r0], -fp
    1770:	0005a70c 	andeq	sl, r5, ip, lsl #14
    1774:	0002c800 	andeq	ip, r2, r0, lsl #16
    1778:	0085b800 	addeq	fp, r5, r0, lsl #16
    177c:	00008400 	andeq	r8, r0, r0, lsl #8
    1780:	000a4e00 	andeq	r4, sl, r0, lsl #28
    1784:	05040200 	streq	r0, [r4, #-512]	; 0xfffffe00
    1788:	00746e69 	rsbseq	r6, r4, r9, ror #28
    178c:	46070403 	strmi	r0, [r7], -r3, lsl #8
    1790:	03000000 	movweq	r0, #0
    1794:	001d0601 	andseq	r0, sp, r1, lsl #12
    1798:	02030000 	andeq	r0, r3, #0
    179c:	00006d05 	andeq	r6, r0, r5, lsl #26
    17a0:	05040300 	streq	r0, [r4, #-768]	; 0xfffffd00
    17a4:	00000058 	andeq	r0, r0, r8, asr r0
    17a8:	53050803 	movwpl	r0, #22531	; 0x5803
    17ac:	03000000 	movweq	r0, #0
    17b0:	001b0801 	andseq	r0, fp, r1, lsl #16
    17b4:	02030000 	andeq	r0, r3, #0
    17b8:	00002907 	andeq	r2, r0, r7, lsl #18
    17bc:	07040300 	streq	r0, [r4, -r0, lsl #6]
    17c0:	00000041 	andeq	r0, r0, r1, asr #32
    17c4:	3c070803 	stccc	8, cr0, [r7], {3}
    17c8:	04000000 	streq	r0, [r0], #-0
    17cc:	00000025 	andeq	r0, r0, r5, lsr #32
    17d0:	0000007a 	andeq	r0, r0, sl, ror r0
    17d4:	00002505 	andeq	r2, r0, r5, lsl #10
    17d8:	61060000 	mrsvs	r0, (UNDEF: 6)
    17dc:	02000000 	andeq	r0, r0, #0
    17e0:	00860e1c 	addeq	r0, r6, ip, lsl lr
    17e4:	04070000 	streq	r0, [r7], #-0
    17e8:	0000006b 	andeq	r0, r0, fp, rrx
    17ec:	00002504 	andeq	r2, r0, r4, lsl #10
    17f0:	00009b00 	andeq	r9, r0, r0, lsl #22
    17f4:	009b0500 	addseq	r0, fp, r0, lsl #10
    17f8:	07000000 	streq	r0, [r0, -r0]
    17fc:	0000a804 	andeq	sl, r0, r4, lsl #16
    1800:	08010300 	stmdaeq	r1, {r8, r9}
    1804:	00000024 	andeq	r0, r0, r4, lsr #32
    1808:	0000a108 	andeq	sl, r0, r8, lsl #2
    180c:	03e60600 	mvneq	r0, #0, 12
    1810:	21020000 	mrscs	r0, (UNDEF: 2)
    1814:	0000b90e 	andeq	fp, r0, lr, lsl #18
    1818:	8c040700 	stchi	7, cr0, [r4], {-0}
    181c:	09000000 	stmdbeq	r0, {}	; <UNPREDICTABLE>
    1820:	0000059d 	muleq	r0, sp, r5
    1824:	24061e01 	strcs	r1, [r6], #-3585	; 0xfffff1ff
    1828:	18000086 	stmdane	r0, {r1, r2, r7}
    182c:	01000000 	mrseq	r0, (UNDEF: 0)
    1830:	0001099c 	muleq	r1, ip, r9
    1834:	65730a00 	ldrbvs	r0, [r3, #-2560]!	; 0xfffff600
    1838:	1e010063 	cdpne	0, 0, cr0, cr1, cr3, {3}
    183c:	00002c19 	andeq	r2, r0, r9, lsl ip
    1840:	00056a00 	andeq	r6, r5, r0, lsl #20
    1844:	00056600 	andeq	r6, r5, r0, lsl #12
    1848:	86380b00 	ldrthi	r0, [r8], -r0, lsl #22
    184c:	01090000 	mrseq	r0, (UNDEF: 9)
    1850:	010c0000 	mrseq	r0, (UNDEF: 12)
    1854:	01f31150 	mvnseq	r1, r0, asr r1
    1858:	f3243550 	vqrshl.u32	<illegal reg q1.5>, q0, q2
    185c:	321c5001 	andscc	r5, ip, #1
    1860:	5001f324 	andpl	pc, r1, r4, lsr #6
    1864:	00243322 	eoreq	r3, r4, r2, lsr #6
    1868:	044c0900 	strbeq	r0, [ip], #-2304	; 0xfffff700
    186c:	1b010000 	blne	41874 <__bss_end__+0x3820c>
    1870:	00860c06 	addeq	r0, r6, r6, lsl #24
    1874:	00001800 	andeq	r1, r0, r0, lsl #16
    1878:	529c0100 	addspl	r0, ip, #0, 2
    187c:	0a000001 	beq	1888 <__code_start__-0x6778>
    1880:	0100736d 	tsteq	r0, sp, ror #6
    1884:	002c181b 	eoreq	r1, ip, fp, lsl r8
    1888:	058f0000 	streq	r0, [pc]	; 1890 <__code_start__-0x6770>
    188c:	058b0000 	streq	r0, [fp]
    1890:	200b0000 	andcs	r0, fp, r0
    1894:	52000086 	andpl	r0, r0, #134	; 0x86
    1898:	0c000001 	stceq	0, cr0, [r0], {1}
    189c:	f3115001 	vhadd.u16	d5, d1, d1
    18a0:	24355001 	ldrtcs	r5, [r5], #-1
    18a4:	1c5001f3 	ldfnee	f0, [r0], {243}	; 0xf3
    18a8:	01f32432 	mvnseq	r2, r2, lsr r4
    18ac:	24332250 	ldrtcs	r2, [r3], #-592	; 0xfffffdb0
    18b0:	4a090000 	bmi	2418b8 <__bss_end__+0x238250>
    18b4:	01000002 	tsteq	r0, r2
    18b8:	85e80612 	strbhi	r0, [r8, #1554]!	; 0x612
    18bc:	00240000 	eoreq	r0, r4, r0
    18c0:	9c010000 	stcls	0, cr0, [r1], {-0}
    18c4:	000001c2 	andeq	r0, r0, r2, asr #3
    18c8:	0073750a 	rsbseq	r7, r3, sl, lsl #10
    18cc:	2c181201 	lfmcs	f1, 4, [r8], {1}
    18d0:	b4000000 	strlt	r0, [r0], #-0
    18d4:	b0000005 	andlt	r0, r0, r5
    18d8:	0d000005 	stceq	0, cr0, [r0, #-20]	; 0xffffffec
    18dc:	01006272 	tsteq	r0, r2, ror r2
    18e0:	002c0e13 	eoreq	r0, ip, r3, lsl lr
    18e4:	05d40000 	ldrbeq	r0, [r4]
    18e8:	05d20000 	ldrbeq	r0, [r2]
    18ec:	f80e0000 			; <UNDEFINED> instruction: 0xf80e0000
    18f0:	14000085 	strne	r0, [r0], #-133	; 0xffffff7b
    18f4:	b8000000 	stmdalt	r0, {}	; <UNPREDICTABLE>
    18f8:	0d000001 	stceq	0, cr0, [r0, #-4]
    18fc:	01006172 	tsteq	r0, r2, ror r1
    1900:	002c1215 	eoreq	r1, ip, r5, lsl r2
    1904:	05e90000 	strbeq	r0, [r9, #0]!
    1908:	05e70000 	strbeq	r0, [r7, #0]!
    190c:	fc0f0000 	stc2	0, cr0, [pc], {-0}
    1910:	c2000085 	andgt	r0, r0, #133	; 0x85
    1914:	00000001 	andeq	r0, r0, r1
    1918:	0085f40f 	addeq	pc, r5, pc, lsl #8
    191c:	0001c200 	andeq	ip, r1, r0, lsl #4
    1920:	bb100000 	bllt	401928 <__bss_end__+0x3f82c0>
    1924:	01000005 	tsteq	r0, r5
    1928:	002c0a09 	eoreq	r0, ip, r9, lsl #20
    192c:	85cc0000 	strbhi	r0, [ip]
    1930:	001c0000 	andseq	r0, ip, r0
    1934:	9c010000 	stcls	0, cr0, [r1], {-0}
    1938:	0000020a 	andeq	r0, r0, sl, lsl #4
    193c:	0100750d 	tsteq	r0, sp, lsl #10
    1940:	002c0e0d 	eoreq	r0, ip, sp, lsl #28
    1944:	06000000 	streq	r0, [r0], -r0
    1948:	05fc0000 	ldrbeq	r0, [ip, #0]!
    194c:	d40f0000 	strle	r0, [pc], #-0	; 1954 <__code_start__-0x66ac>
    1950:	38000085 	stmdacc	r0, {r0, r2, r7}
    1954:	0f000002 	svceq	0x00000002
    1958:	000085d8 	ldrdeq	r8, [r0], -r8	; <UNPREDICTABLE>
    195c:	0000020a 	andeq	r0, r0, sl, lsl #4
    1960:	0085e00f 	addeq	lr, r5, pc
    1964:	00023800 	andeq	r3, r2, r0, lsl #16
    1968:	ca100000 	bgt	401970 <__bss_end__+0x3f8308>
    196c:	01000005 	tsteq	r0, r5
    1970:	002c0a04 	eoreq	r0, ip, r4, lsl #20
    1974:	85b80000 	ldrhi	r0, [r8, #0]!
    1978:	00140000 	andseq	r0, r4, r0
    197c:	9c010000 	stcls	0, cr0, [r1], {-0}
    1980:	00000238 	andeq	r0, r0, r8, lsr r2
    1984:	0085c40b 	addeq	ip, r5, fp, lsl #8
    1988:	00024400 	andeq	r4, r2, r0, lsl #8
    198c:	50010c00 	andpl	r0, r1, r0, lsl #24
    1990:	30040c05 	andcc	r0, r4, r5, lsl #24
    1994:	00002000 	andeq	r2, r0, r0
    1998:	00059111 	andeq	r9, r5, r1, lsl r1
    199c:	00059100 	andeq	r9, r5, r0, lsl #2
    19a0:	069c0200 	ldreq	r0, [ip], r0, lsl #4
    19a4:	0002b311 	andeq	fp, r2, r1, lsl r3
    19a8:	0002b300 	andeq	fp, r2, r0, lsl #6
    19ac:	0ac20200 	beq	ff0821b4 <__bss_end__+0xff078b4c>
    19b0:	0004f400 	andeq	pc, r4, r0, lsl #8
    19b4:	cc000400 	cfstrsgt	mvf0, [r0], {-0}
    19b8:	0400000b 	streq	r0, [r0], #-11
    19bc:	0000bb01 	andeq	fp, r0, r1, lsl #22
    19c0:	062f0c00 	strteq	r0, [pc], -r0, lsl #24
    19c4:	02c80000 	sbceq	r0, r8, #0
    19c8:	863c0000 	ldrthi	r0, [ip], -r0
    19cc:	01e80000 	mvneq	r0, r0
    19d0:	0b280000 	bleq	a019d8 <__bss_end__+0x9f8370>
    19d4:	04020000 	streq	r0, [r2], #-0
    19d8:	746e6905 	strbtvc	r6, [lr], #-2309	; 0xfffff6fb
    19dc:	07040300 	streq	r0, [r4, -r0, lsl #6]
    19e0:	00000046 	andeq	r0, r0, r6, asr #32
    19e4:	1d060103 	stfnes	f0, [r6, #-12]
    19e8:	03000000 	movweq	r0, #0
    19ec:	006d0502 	rsbeq	r0, sp, r2, lsl #10
    19f0:	04030000 	streq	r0, [r3], #-0
    19f4:	00005805 	andeq	r5, r0, r5, lsl #16
    19f8:	05080300 	streq	r0, [r8, #-768]	; 0xfffffd00
    19fc:	00000053 	andeq	r0, r0, r3, asr r0
    1a00:	1b080103 	blne	201e14 <__bss_end__+0x1f87ac>
    1a04:	03000000 	movweq	r0, #0
    1a08:	00290702 	eoreq	r0, r9, r2, lsl #14
    1a0c:	04030000 	streq	r0, [r3], #-0
    1a10:	00004107 	andeq	r4, r0, r7, lsl #2
    1a14:	07080300 	streq	r0, [r8, -r0, lsl #6]
    1a18:	0000003c 	andeq	r0, r0, ip, lsr r0
    1a1c:	00002504 	andeq	r2, r0, r4, lsl #10
    1a20:	00007a00 	andeq	r7, r0, r0, lsl #20
    1a24:	00250500 	eoreq	r0, r5, r0, lsl #10
    1a28:	06000000 	streq	r0, [r0], -r0
    1a2c:	00000061 	andeq	r0, r0, r1, rrx
    1a30:	860e1c02 	strhi	r1, [lr], -r2, lsl #24
    1a34:	07000000 	streq	r0, [r0, -r0]
    1a38:	00006b04 	andeq	r6, r0, r4, lsl #22
    1a3c:	00250400 	eoreq	r0, r5, r0, lsl #8
    1a40:	009b0000 	addseq	r0, fp, r0
    1a44:	9b050000 	blls	141a4c <__bss_end__+0x1383e4>
    1a48:	00000000 	andeq	r0, r0, r0
    1a4c:	00a80407 	adceq	r0, r8, r7, lsl #8
    1a50:	01030000 	mrseq	r0, (UNDEF: 3)
    1a54:	00002408 	andeq	r2, r0, r8, lsl #8
    1a58:	00a10800 	adceq	r0, r1, r0, lsl #16
    1a5c:	e6060000 	str	r0, [r6], -r0
    1a60:	02000003 	andeq	r0, r0, #3
    1a64:	00b90e21 	adcseq	r0, r9, r1, lsr #28
    1a68:	04070000 	streq	r0, [r7], #-0
    1a6c:	0000008c 	andeq	r0, r0, ip, lsl #1
    1a70:	4f010709 	svcmi	0x00010709
    1a74:	03000000 	movweq	r0, #0
    1a78:	00fe0e0c 	rscseq	r0, lr, ip, lsl #28
    1a7c:	700a0000 	andvc	r0, sl, r0
    1a80:	00000003 	andeq	r0, r0, r3
    1a84:	0002920a 	andeq	r9, r2, sl, lsl #4
    1a88:	b90a0100 	stmdblt	sl, {r8}
    1a8c:	04000002 	streq	r0, [r0], #-2
    1a90:	0003410a 	andeq	r4, r3, sl, lsl #2
    1a94:	ec0a0500 	cfstr32	mvfx0, [sl], {-0}
    1a98:	06000002 	streq	r0, [r0], -r2
    1a9c:	0002fb0a 	andeq	pc, r2, sl, lsl #22
    1aa0:	5a0a0700 	bpl	2836a8 <__bss_end__+0x27a040>
    1aa4:	03000003 	movweq	r0, #3
    1aa8:	00030a0a 	andeq	r0, r3, sl, lsl #20
    1aac:	0b000200 	bleq	22b4 <__code_start__-0x5d4c>
    1ab0:	00000470 	andeq	r0, r0, r0, ror r4
    1ab4:	dc069601 	stcle	6, cr9, [r6], {1}
    1ab8:	14000087 	strne	r0, [r0], #-135	; 0xffffff79
    1abc:	01000000 	mrseq	r0, (UNDEF: 0)
    1ac0:	00011e9c 	muleq	r1, ip, lr
    1ac4:	87e40c00 	strbhi	r0, [r4, r0, lsl #24]!
    1ac8:	011e0000 	tsteq	lr, r0
    1acc:	0d000000 	stceq	0, cr0, [r0, #-0]
    1ad0:	000005eb 	andeq	r0, r0, fp, ror #11
    1ad4:	25058d01 	strcs	r8, [r5, #-3329]	; 0xfffff2ff
    1ad8:	b4000000 	strlt	r0, [r0], #-0
    1adc:	28000087 	stmdacs	r0, {r0, r1, r2, r7}
    1ae0:	01000000 	mrseq	r0, (UNDEF: 0)
    1ae4:	0001749c 	muleq	r1, ip, r4
    1ae8:	00630e00 	rsbeq	r0, r3, r0, lsl #28
    1aec:	25098f01 	strcs	r8, [r9, #-3841]	; 0xfffff0ff
    1af0:	20000000 	andcs	r0, r0, r0
    1af4:	1e000006 	cdpne	0, 0, cr0, cr0, cr6, {0}
    1af8:	0c000006 	stceq	0, cr0, [r0], {6}
    1afc:	000087bc 			; <UNDEFINED> instruction: 0x000087bc
    1b00:	000004c7 	andeq	r0, r0, r7, asr #9
    1b04:	0087c40f 	addeq	ip, r7, pc, lsl #8
    1b08:	0004d300 	andeq	sp, r4, r0, lsl #6
    1b0c:	00016a00 	andeq	r6, r1, r0, lsl #20
    1b10:	50011000 	andpl	r1, r1, r0
    1b14:	50640c05 	rsbpl	r0, r4, r5, lsl #24
    1b18:	0c002021 	stceq	0, cr2, [r0], {33}	; 0x21
    1b1c:	000087d0 	ldrdeq	r8, [r0], -r0
    1b20:	000004c7 	andeq	r0, r0, r7, asr #9
    1b24:	063c0d00 	ldrteq	r0, [ip], -r0, lsl #26
    1b28:	86010000 	strhi	r0, [r1], -r0
    1b2c:	00002505 	andeq	r2, r0, r5, lsl #10
    1b30:	00879400 	addeq	r9, r7, r0, lsl #8
    1b34:	00002000 	andeq	r2, r0, r0
    1b38:	a19c0100 	orrsge	r0, ip, r0, lsl #2
    1b3c:	0c000001 	stceq	0, cr0, [r0], {1}
    1b40:	0000879c 	muleq	r0, ip, r7
    1b44:	000001a1 	andeq	r0, r0, r1, lsr #3
    1b48:	0087a80c 	addeq	sl, r7, ip, lsl #16
    1b4c:	00027400 	andeq	r7, r2, r0, lsl #8
    1b50:	210d0000 	mrscs	r0, (UNDEF: 13)
    1b54:	01000006 	tsteq	r0, r6
    1b58:	00250580 	eoreq	r0, r5, r0, lsl #11
    1b5c:	87880000 	strhi	r0, [r8, r0]
    1b60:	000c0000 	andeq	r0, ip, r0
    1b64:	9c010000 	stcls	0, cr0, [r1], {-0}
    1b68:	000001c5 	andeq	r0, r0, r5, asr #3
    1b6c:	0087900c 	addeq	r9, r7, ip
    1b70:	0002d500 	andeq	sp, r2, r0, lsl #10
    1b74:	280b0000 	stmdacs	fp, {}	; <UNPREDICTABLE>
    1b78:	01000004 	tsteq	r0, r4
    1b7c:	87580673 			; <UNDEFINED> instruction: 0x87580673
    1b80:	00300000 	eorseq	r0, r0, r0
    1b84:	9c010000 	stcls	0, cr0, [r1], {-0}
    1b88:	00000229 	andeq	r0, r0, r9, lsr #4
    1b8c:	01006311 	tsteq	r0, r1, lsl r3
    1b90:	002c1973 	eoreq	r1, ip, r3, ror r9
    1b94:	06370000 	ldrteq	r0, [r7], -r0
    1b98:	06330000 	ldrteq	r0, [r3], -r0
    1b9c:	640c0000 	strvs	r0, [ip], #-0
    1ba0:	c7000087 	strgt	r0, [r0, -r7, lsl #1]
    1ba4:	0c000004 	stceq	0, cr0, [r0], {4}
    1ba8:	00008768 	andeq	r8, r0, r8, ror #14
    1bac:	00000229 	andeq	r0, r0, r9, lsr #4
    1bb0:	00877c0f 	addeq	r7, r7, pc, lsl #24
    1bb4:	0004df00 	andeq	sp, r4, r0, lsl #30
    1bb8:	00021f00 	andeq	r1, r2, r0, lsl #30
    1bbc:	50011000 	andpl	r1, r1, r0
    1bc0:	50400c05 	subpl	r0, r0, r5, lsl #24
    1bc4:	01102021 	tsteq	r0, r1, lsr #32
    1bc8:	00740551 	rsbseq	r0, r4, r1, asr r5
    1bcc:	001aff08 	andseq	pc, sl, r8, lsl #30
    1bd0:	0087800c 	addeq	r8, r7, ip
    1bd4:	0004c700 	andeq	ip, r4, r0, lsl #14
    1bd8:	060d0000 	streq	r0, [sp], -r0
    1bdc:	01000006 	tsteq	r0, r6
    1be0:	00250569 	eoreq	r0, r5, r9, ror #10
    1be4:	873c0000 	ldrhi	r0, [ip, -r0]!
    1be8:	001c0000 	andseq	r0, ip, r0
    1bec:	9c010000 	stcls	0, cr0, [r1], {-0}
    1bf0:	00000274 	andeq	r0, r0, r4, ror r2
    1bf4:	7465720e 	strbtvc	r7, [r5], #-526	; 0xfffffdf2
    1bf8:	096b0100 	stmdbeq	fp!, {r8}^
    1bfc:	00000025 	andeq	r0, r0, r5, lsr #32
    1c00:	00000659 	andeq	r0, r0, r9, asr r6
    1c04:	00000655 	andeq	r0, r0, r5, asr r6
    1c08:	0087440c 	addeq	r4, r7, ip, lsl #8
    1c0c:	0004c700 	andeq	ip, r4, r0, lsl #14
    1c10:	874c1200 	strbhi	r1, [ip, -r0, lsl #4]
    1c14:	04d30000 	ldrbeq	r0, [r3], #0
    1c18:	01100000 	tsteq	r0, r0
    1c1c:	640c0550 	strvs	r0, [ip], #-1360	; 0xfffffab0
    1c20:	00202150 	eoreq	r2, r0, r0, asr r1
    1c24:	05fc0d00 	ldrbeq	r0, [ip, #3328]!	; 0xd00
    1c28:	5c010000 	stcpl	0, cr0, [r1], {-0}
    1c2c:	00002505 	andeq	r2, r0, r5, lsl #10
    1c30:	00870c00 	addeq	r0, r7, r0, lsl #24
    1c34:	00003000 	andeq	r3, r0, r0
    1c38:	d59c0100 	ldrle	r0, [ip, #256]	; 0x100
    1c3c:	0e000002 	cdpeq	0, 0, cr0, cr0, cr2, {0}
    1c40:	00746572 	rsbseq	r6, r4, r2, ror r5
    1c44:	25096101 	strcs	r6, [r9, #-257]	; 0xfffffeff
    1c48:	7d000000 	stcvc	0, cr0, [r0, #-0]
    1c4c:	7b000006 	blvc	1c6c <__code_start__-0x6394>
    1c50:	0c000006 	stceq	0, cr0, [r0], {6}
    1c54:	00008714 	andeq	r8, r0, r4, lsl r7
    1c58:	000004c7 	andeq	r0, r0, r7, asr #9
    1c5c:	0087180c 	addeq	r1, r7, ip, lsl #16
    1c60:	0002d500 	andeq	sp, r2, r0, lsl #10
    1c64:	87280f00 	strhi	r0, [r8, -r0, lsl #30]!
    1c68:	04d30000 	ldrbeq	r0, [r3], #0
    1c6c:	02cb0000 	sbceq	r0, fp, #0
    1c70:	01100000 	tsteq	r0, r0
    1c74:	400c0550 	andmi	r0, ip, r0, asr r5
    1c78:	00202150 	eoreq	r2, r0, r0, asr r1
    1c7c:	0087300c 	addeq	r3, r7, ip
    1c80:	0004c700 	andeq	ip, r4, r0, lsl #14
    1c84:	dd130000 	ldcle	0, cr0, [r3, #-0]
    1c88:	01000005 	tsteq	r0, r5
    1c8c:	00250c51 	eoreq	r0, r5, r1, asr ip
    1c90:	863c0000 	ldrthi	r0, [ip], -r0
    1c94:	00240000 	eoreq	r0, r4, r0
    1c98:	9c010000 	stcls	0, cr0, [r1], {-0}
    1c9c:	0000032d 	andeq	r0, r0, sp, lsr #6
    1ca0:	7465720e 	strbtvc	r7, [r5], #-526	; 0xfffffdf2
    1ca4:	09530100 	ldmdbeq	r3, {r8}^
    1ca8:	00000025 	andeq	r0, r0, r5, lsr #32
    1cac:	00000692 	muleq	r0, r2, r6
    1cb0:	00000690 	muleq	r0, r0, r6
    1cb4:	0086440c 	addeq	r4, r6, ip, lsl #8
    1cb8:	0004c700 	andeq	ip, r4, r0, lsl #14
    1cbc:	864c0f00 	strbhi	r0, [ip], -r0, lsl #30
    1cc0:	04d30000 	ldrbeq	r0, [r3], #0
    1cc4:	03230000 			; <UNDEFINED> instruction: 0x03230000
    1cc8:	01100000 	tsteq	r0, r0
    1ccc:	640c0550 	strvs	r0, [ip], #-1360	; 0xfffffab0
    1cd0:	00202150 	eoreq	r2, r0, r0, asr r1
    1cd4:	0086540c 	addeq	r5, r6, ip, lsl #8
    1cd8:	0004c700 	andeq	ip, r4, r0, lsl #14
    1cdc:	140b0000 	strne	r0, [fp], #-0
    1ce0:	01000006 	tsteq	r0, r6
    1ce4:	87f00644 	ldrbhi	r0, [r0, r4, asr #12]!
    1ce8:	00340000 	eorseq	r0, r4, r0
    1cec:	9c010000 	stcls	0, cr0, [r1], {-0}
    1cf0:	00000390 	muleq	r0, r0, r3
    1cf4:	0087f80c 	addeq	pc, r7, ip, lsl #16
    1cf8:	0004c700 	andeq	ip, r4, r0, lsl #14
    1cfc:	87fc0c00 	ldrbhi	r0, [ip, r0, lsl #24]!
    1d00:	00fe0000 	rscseq	r0, lr, r0
    1d04:	000c0000 	andeq	r0, ip, r0
    1d08:	c7000088 	strgt	r0, [r0, -r8, lsl #1]
    1d0c:	0f000004 	svceq	0x00000004
    1d10:	0000880c 	andeq	r8, r0, ip, lsl #16
    1d14:	000004d3 	ldrdeq	r0, [r0], -r3
    1d18:	00000372 	andeq	r0, r0, r2, ror r3
    1d1c:	02500110 	subseq	r0, r0, #16, 2
    1d20:	0f000074 	svceq	0x00000074
    1d24:	00008818 	andeq	r8, r0, r8, lsl r8
    1d28:	000004df 	ldrdeq	r0, [r0], -pc	; <UNPREDICTABLE>
    1d2c:	00000386 	andeq	r0, r0, r6, lsl #7
    1d30:	02500110 	subseq	r0, r0, #16, 2
    1d34:	0c000074 	stceq	0, cr0, [r0], {116}	; 0x74
    1d38:	0000881c 	andeq	r8, r0, ip, lsl r8
    1d3c:	000004c7 	andeq	r0, r0, r7, asr #9
    1d40:	049c0b00 	ldreq	r0, [ip], #2816	; 0xb00
    1d44:	20010000 	andcs	r0, r1, r0
    1d48:	00866006 	addeq	r6, r6, r6
    1d4c:	0000ac00 	andeq	sl, r0, r0, lsl #24
    1d50:	c79c0100 	ldrgt	r0, [ip, r0, lsl #2]
    1d54:	0c000004 	stceq	0, cr0, [r0], {4}
    1d58:	00008668 	andeq	r8, r0, r8, ror #12
    1d5c:	000004c7 	andeq	r0, r0, r7, asr #9
    1d60:	0086740f 	addeq	r7, r6, pc, lsl #8
    1d64:	0004eb00 	andeq	lr, r4, r0, lsl #22
    1d68:	0003c700 	andeq	ip, r3, r0, lsl #14
    1d6c:	50011000 	andpl	r1, r1, r0
    1d70:	01103e01 	tsteq	r0, r1, lsl #28
    1d74:	00320151 	eorseq	r0, r2, r1, asr r1
    1d78:	0086800f 	addeq	r8, r6, pc
    1d7c:	0004eb00 	andeq	lr, r4, r0, lsl #22
    1d80:	0003df00 	andeq	sp, r3, r0, lsl #30
    1d84:	50011000 	andpl	r1, r1, r0
    1d88:	01103f01 	tsteq	r0, r1, lsl #30
    1d8c:	00320151 	eorseq	r0, r2, r1, asr r1
    1d90:	0086840c 	addeq	r8, r6, ip, lsl #8
    1d94:	0004c700 	andeq	ip, r4, r0, lsl #14
    1d98:	86900f00 	ldrhi	r0, [r0], r0, lsl #30
    1d9c:	04d30000 	ldrbeq	r0, [r3], #0
    1da0:	03fc0000 	mvnseq	r0, #0
    1da4:	01100000 	tsteq	r0, r0
    1da8:	00740250 	rsbseq	r0, r4, r0, asr r2
    1dac:	869c0f00 	ldrhi	r0, [ip], r0, lsl #30
    1db0:	04df0000 	ldrbeq	r0, [pc], #0	; 1db8 <__code_start__-0x6248>
    1db4:	04100000 	ldreq	r0, [r0], #-0
    1db8:	01100000 	tsteq	r0, r0
    1dbc:	00740250 	rsbseq	r0, r4, r0, asr r2
    1dc0:	86a00c00 	strthi	r0, [r0], r0, lsl #24
    1dc4:	04c70000 	strbeq	r0, [r7], #0
    1dc8:	b00f0000 	andlt	r0, pc, r0
    1dcc:	df000086 	svcle	0x00000086
    1dd0:	32000004 	andcc	r0, r0, #4
    1dd4:	10000004 	andne	r0, r0, r4
    1dd8:	74025001 	strvc	r5, [r2], #-1
    1ddc:	51011000 	mrspl	r1, (UNDEF: 1)
    1de0:	0f003001 	svceq	0x00003001
    1de4:	000086bc 			; <UNDEFINED> instruction: 0x000086bc
    1de8:	000004df 	ldrdeq	r0, [r0], -pc	; <UNPREDICTABLE>
    1dec:	0000044e 	andeq	r0, r0, lr, asr #8
    1df0:	05500110 	ldrbeq	r0, [r0, #-272]	; 0xfffffef0
    1df4:	2150480c 	cmpcs	r0, ip, lsl #16
    1df8:	51011020 	tstpl	r1, r0, lsr #32
    1dfc:	0f003601 	svceq	0x00003601
    1e00:	000086c8 	andeq	r8, r0, r8, asr #13
    1e04:	000004df 	ldrdeq	r0, [r0], -pc	; <UNPREDICTABLE>
    1e08:	0000046a 	andeq	r0, r0, sl, ror #8
    1e0c:	05500110 	ldrbeq	r0, [r0, #-272]	; 0xfffffef0
    1e10:	2150440c 	cmpcs	r0, ip, lsl #8
    1e14:	51011020 	tstpl	r1, r0, lsr #32
    1e18:	0f003001 	svceq	0x00003001
    1e1c:	000086d4 	ldrdeq	r8, [r0], -r4
    1e20:	000004df 	ldrdeq	r0, [r0], -pc	; <UNPREDICTABLE>
    1e24:	00000488 	andeq	r0, r0, r8, lsl #9
    1e28:	05500110 	ldrbeq	r0, [r0, #-272]	; 0xfffffef0
    1e2c:	2150680c 	cmpcs	r0, ip, lsl #16
    1e30:	51011020 	tstpl	r1, r0, lsr #32
    1e34:	010e0a03 	tsteq	lr, r3, lsl #20
    1e38:	86e00f00 	strbthi	r0, [r0], r0, lsl #30
    1e3c:	04df0000 	ldrbeq	r0, [pc], #0	; 1e44 <__code_start__-0x61bc>
    1e40:	04a40000 	strteq	r0, [r4], #0
    1e44:	01100000 	tsteq	r0, r0
    1e48:	4c0c0550 	cfstr32mi	mvfx0, [ip], {80}	; 0x50
    1e4c:	10202150 	eorne	r2, r0, r0, asr r1
    1e50:	33015101 	movwcc	r5, #4353	; 0x1101
    1e54:	86ec0f00 	strbthi	r0, [ip], r0, lsl #30
    1e58:	04df0000 	ldrbeq	r0, [pc], #0	; 1e60 <__code_start__-0x61a0>
    1e5c:	04bd0000 	ldrteq	r0, [sp], #0
    1e60:	01100000 	tsteq	r0, r0
    1e64:	00740250 	rsbseq	r0, r4, r0, asr r2
    1e68:	01510110 	cmpeq	r1, r0, lsl r1
    1e6c:	f00c0033 			; <UNDEFINED> instruction: 0xf00c0033
    1e70:	c7000086 	strgt	r0, [r0, -r6, lsl #1]
    1e74:	00000004 	andeq	r0, r0, r4
    1e78:	00059114 	andeq	r9, r5, r4, lsl r1
    1e7c:	00059100 	andeq	r9, r5, r0, lsl #2
    1e80:	069c0200 	ldreq	r0, [ip], r0, lsl #4
    1e84:	0002b314 	andeq	fp, r2, r4, lsl r3
    1e88:	0002b300 	andeq	fp, r2, r0, lsl #6
    1e8c:	0ac20200 	beq	ff082694 <__bss_end__+0xff07902c>
    1e90:	0002ad14 	andeq	sl, r2, r4, lsl sp
    1e94:	0002ad00 	andeq	sl, r2, r0, lsl #26
    1e98:	06ad0200 	strteq	r0, [sp], r0, lsl #4
    1e9c:	00038014 	andeq	r8, r3, r4, lsl r0
    1ea0:	00038000 	andeq	r8, r3, r0
    1ea4:	06190300 	ldreq	r0, [r9], -r0, lsl #6
    1ea8:	000a9500 	andeq	r9, sl, r0, lsl #10
    1eac:	07000400 	streq	r0, [r0, -r0, lsl #8]
    1eb0:	0400000d 	streq	r0, [r0], #-13
    1eb4:	0000bb01 	andeq	fp, r0, r1, lsl #22
    1eb8:	065d0c00 	ldrbeq	r0, [sp], -r0, lsl #24
    1ebc:	02c80000 	sbceq	r0, r8, #0
    1ec0:	88240000 	stmdahi	r4!, {}	; <UNPREDICTABLE>
    1ec4:	07200000 	streq	r0, [r0, -r0]!
    1ec8:	0cdc0000 	ldcleq	0, cr0, [ip], {0}
    1ecc:	04020000 	streq	r0, [r2], #-0
    1ed0:	746e6905 	strbtvc	r6, [lr], #-2309	; 0xfffff6fb
    1ed4:	07040300 	streq	r0, [r4, -r0, lsl #6]
    1ed8:	00000046 	andeq	r0, r0, r6, asr #32
    1edc:	1d060103 	stfnes	f0, [r6, #-12]
    1ee0:	03000000 	movweq	r0, #0
    1ee4:	006d0502 	rsbeq	r0, sp, r2, lsl #10
    1ee8:	04030000 	streq	r0, [r3], #-0
    1eec:	00005805 	andeq	r5, r0, r5, lsl #16
    1ef0:	05080300 	streq	r0, [r8, #-768]	; 0xfffffd00
    1ef4:	00000053 	andeq	r0, r0, r3, asr r0
    1ef8:	1b080103 	blne	20230c <__bss_end__+0x1f8ca4>
    1efc:	03000000 	movweq	r0, #0
    1f00:	00290702 	eoreq	r0, r9, r2, lsl #14
    1f04:	37040000 	strcc	r0, [r4, -r0]
    1f08:	02000002 	andeq	r0, r0, #2
    1f0c:	00691934 	rsbeq	r1, r9, r4, lsr r9
    1f10:	04030000 	streq	r0, [r3], #-0
    1f14:	00004107 	andeq	r4, r0, r7, lsl #2
    1f18:	06540400 	ldrbeq	r0, [r4], -r0, lsl #8
    1f1c:	37020000 	strcc	r0, [r2, -r0]
    1f20:	00007c19 	andeq	r7, r0, r9, lsl ip
    1f24:	07080300 	streq	r0, [r8, -r0, lsl #6]
    1f28:	0000003c 	andeq	r0, r0, ip, lsr r0
    1f2c:	00002505 	andeq	r2, r0, r5, lsl #10
    1f30:	00009200 	andeq	r9, r0, r0, lsl #4
    1f34:	00250600 	eoreq	r0, r5, r0, lsl #12
    1f38:	07000000 	streq	r0, [r0, -r0]
    1f3c:	00000061 	andeq	r0, r0, r1, rrx
    1f40:	9e0e1c03 	cdpls	12, 0, cr1, cr14, cr3, {0}
    1f44:	08000000 	stmdaeq	r0, {}	; <UNPREDICTABLE>
    1f48:	00008304 	andeq	r8, r0, r4, lsl #6
    1f4c:	00250500 	eoreq	r0, r5, r0, lsl #10
    1f50:	00b30000 	adcseq	r0, r3, r0
    1f54:	b3060000 	movwlt	r0, #24576	; 0x6000
    1f58:	00000000 	andeq	r0, r0, r0
    1f5c:	00c00408 	sbceq	r0, r0, r8, lsl #8
    1f60:	01030000 	mrseq	r0, (UNDEF: 3)
    1f64:	00002408 	andeq	r2, r0, r8, lsl #8
    1f68:	00b90900 	adcseq	r0, r9, r0, lsl #18
    1f6c:	e6070000 	str	r0, [r7], -r0
    1f70:	03000003 	movweq	r0, #3
    1f74:	00d10e21 	sbcseq	r0, r1, r1, lsr #28
    1f78:	04080000 	streq	r0, [r8], #-0
    1f7c:	000000a4 	andeq	r0, r0, r4, lsr #1
    1f80:	00067007 	andeq	r7, r6, r7
    1f84:	0d0b0400 	cfstrseq	mvf0, [fp, #-0]
    1f88:	000000b9 	strheq	r0, [r0], -r9
    1f8c:	0006d607 	andeq	sp, r6, r7, lsl #12
    1f90:	0d0c0400 	cfstrseq	mvf0, [ip, #-0]
    1f94:	000000b9 	strheq	r0, [r0], -r9
    1f98:	00047e07 	andeq	r7, r4, r7, lsl #28
    1f9c:	0d0d0400 	cfstrseq	mvf0, [sp, #-0]
    1fa0:	000000b9 	strheq	r0, [r0], -r9
    1fa4:	0004c907 	andeq	ip, r4, r7, lsl #18
    1fa8:	0d0e0400 	cfstrseq	mvf0, [lr, #-0]
    1fac:	000000b9 	strheq	r0, [r0], -r9
    1fb0:	0006ff07 	andeq	pc, r6, r7, lsl #30
    1fb4:	0d0f0400 	cfstrseq	mvf0, [pc, #-0]	; 1fbc <__code_start__-0x6044>
    1fb8:	000000b9 	strheq	r0, [r0], -r9
    1fbc:	00068507 	andeq	r8, r6, r7, lsl #10
    1fc0:	0d100400 	cfldrseq	mvf0, [r0, #-0]
    1fc4:	000000b9 	strheq	r0, [r0], -r9
    1fc8:	00070e07 	andeq	r0, r7, r7, lsl #28
    1fcc:	0d110400 	cfldrseq	mvf0, [r1, #-0]
    1fd0:	000000b9 	strheq	r0, [r0], -r9
    1fd4:	00069a07 	andeq	r9, r6, r7, lsl #20
    1fd8:	0d120400 	cfldrseq	mvf0, [r2, #-0]
    1fdc:	000000b9 	strheq	r0, [r0], -r9
    1fe0:	0003af04 	andeq	sl, r3, r4, lsl #30
    1fe4:	1b280500 	blne	a033ec <__bss_end__+0x9f9d84>
    1fe8:	00000143 	andeq	r0, r0, r3, asr #2
    1fec:	0003d30a 	andeq	sp, r3, sl, lsl #6
    1ff0:	00060400 	andeq	r0, r6, r0, lsl #8
    1ff4:	0000015a 	andeq	r0, r0, sl, asr r1
    1ff8:	0003be0b 	andeq	fp, r3, fp, lsl #28
    1ffc:	00015a00 	andeq	r5, r1, r0, lsl #20
    2000:	0c000000 	stceq	0, cr0, [r0], {-0}
    2004:	03d50404 	bicseq	r0, r5, #4, 8	; 0x4000000
    2008:	63050000 	movwvs	r0, #20480	; 0x5000
    200c:	00013718 	andeq	r3, r1, r8, lsl r7
    2010:	03a50d00 			; <UNDEFINED> instruction: 0x03a50d00
    2014:	81010000 	mrshi	r0, (UNDEF: 1)
    2018:	00002505 	andeq	r2, r0, r5, lsl #10
    201c:	008aac00 	addeq	sl, sl, r0, lsl #24
    2020:	00049800 	andeq	r9, r4, r0, lsl #16
    2024:	d59c0100 	ldrle	r0, [ip, #256]	; 0x100
    2028:	0e000006 	cdpeq	0, 0, cr0, cr0, cr6, {0}
    202c:	00667562 	rsbeq	r7, r6, r2, ror #10
    2030:	d5158101 	ldrle	r8, [r5, #-257]	; 0xfffffeff
    2034:	ab000006 	blge	2054 <__code_start__-0x5fac>
    2038:	a5000006 	strge	r0, [r0, #-6]
    203c:	0e000006 	cdpeq	0, 0, cr0, cr0, cr6, {0}
    2040:	8101006e 	tsthi	r1, lr, rrx
    2044:	0000251e 	andeq	r2, r0, lr, lsl r5
    2048:	0006dd00 	andeq	sp, r6, r0, lsl #26
    204c:	0006d700 	andeq	sp, r6, r0, lsl #14
    2050:	6d660e00 	stclvs	14, cr0, [r6, #-0]
    2054:	81010074 	tsthi	r1, r4, ror r0
    2058:	0000b32d 	andeq	fp, r0, sp, lsr #6
    205c:	00071700 	andeq	r1, r7, r0, lsl #14
    2060:	00070b00 	andeq	r0, r7, r0, lsl #22
    2064:	03a00f00 	moveq	r0, #0, 30
    2068:	81010000 	mrshi	r0, (UNDEF: 1)
    206c:	00015c3a 	andeq	r5, r1, sl, lsr ip
    2070:	d4910300 	ldrle	r0, [r1], #768	; 0x300
    2074:	0070107d 	rsbseq	r1, r0, sp, ror r0
    2078:	d5088201 	strle	r8, [r8, #-513]	; 0xfffffdff
    207c:	75000006 	strvc	r0, [r0, #-6]
    2080:	61000007 	tstvs	r0, r7
    2084:	10000007 	andne	r0, r0, r7
    2088:	82010065 	andhi	r0, r1, #101	; 0x65
    208c:	0006d512 	andeq	sp, r6, r2, lsl r5
    2090:	0007f700 	andeq	pc, r7, r0, lsl #14
    2094:	0007f300 	andeq	pc, r7, r0, lsl #6
    2098:	30781000 	rsbscc	r1, r8, r0
    209c:	0e830100 	rmfeqs	f0, f3, f0
    20a0:	0000005d 	andeq	r0, r0, sp, asr r0
    20a4:	00000824 	andeq	r0, r0, r4, lsr #16
    20a8:	0000081e 	andeq	r0, r0, lr, lsl r8
    20ac:	00317811 	eorseq	r7, r1, r1, lsl r8
    20b0:	5d118301 	ldcpl	3, cr8, [r1, #-4]
    20b4:	12000000 	andne	r0, r0, #0
    20b8:	000006b8 			; <UNDEFINED> instruction: 0x000006b8
    20bc:	b3118601 	tstlt	r1, #1048576	; 0x100000
    20c0:	51000000 	mrspl	r0, (UNDEF: 0)
    20c4:	4d000008 	stcmi	0, cr0, [r0, #-32]	; 0xffffffe0
    20c8:	13000008 	movwne	r0, #8
    20cc:	000001ec 	andeq	r0, r0, ip, ror #3
    20d0:	000006eb 	andeq	r0, r0, fp, ror #13
    20d4:	92540305 	subsls	r0, r4, #335544320	; 0x14000000
    20d8:	14140000 	ldrne	r0, [r4], #-0
    20dc:	e800008b 	stmda	r0, {r0, r1, r3, r7}
    20e0:	10000003 	andne	r0, r0, r3
    20e4:	91010073 	tstls	r1, r3, ror r0
    20e8:	0006d50a 	andeq	sp, r6, sl, lsl #10
    20ec:	00088700 	andeq	r8, r8, r0, lsl #14
    20f0:	00087100 	andeq	r7, r8, r0, lsl #2
    20f4:	756e1500 	strbvc	r1, [lr, #-1280]!	; 0xfffffb00
    20f8:	9101006d 	tstls	r1, sp, rrx
    20fc:	0006f00d 	andeq	pc, r6, sp
    2100:	d8910300 	ldmle	r1, {r8, r9}
    2104:	071b167d 			; <UNDEFINED> instruction: 0x071b167d
    2108:	91010000 	mrsls	r0, (UNDEF: 1)
    210c:	0006f017 	andeq	pc, r6, r7, lsl r0	; <UNPREDICTABLE>
    2110:	d8910300 	ldmle	r1, {r8, r9}
    2114:	067f127e 			; <UNDEFINED> instruction: 0x067f127e
    2118:	92010000 	andls	r0, r1, #0
    211c:	00002c0d 	andeq	r2, r0, sp, lsl #24
    2120:	00090e00 	andeq	r0, r9, r0, lsl #28
    2124:	00090800 	andeq	r0, r9, r0, lsl #16
    2128:	8bdc1700 	blhi	ff707d30 <__bss_end__+0xff6fe6c8>
    212c:	018c0000 	orreq	r0, ip, r0
    2130:	04f70000 	ldrbteq	r0, [r7], #0
    2134:	74100000 	ldrvc	r0, [r0], #-0
    2138:	9e010079 	mcrls	0, 0, r0, cr1, cr9, {3}
    213c:	0000b31d 	andeq	fp, r0, sp, lsl r3
    2140:	00094200 	andeq	r4, r9, r0, lsl #4
    2144:	00093800 	andeq	r3, r9, r0, lsl #16
    2148:	78781100 	ldmdavc	r8!, {r8, ip}^
    214c:	1aa20100 	bne	fe882554 <__bss_end__+0xfe878eec>
    2150:	00000070 	andeq	r0, r0, r0, ror r0
    2154:	008bec18 	addeq	lr, fp, r8, lsl ip
    2158:	000a5000 	andeq	r5, sl, r0
    215c:	0002cd00 	andeq	ip, r2, r0, lsl #26
    2160:	50011900 	andpl	r1, r1, r0, lsl #18
    2164:	19007602 	stmdbne	r0, {r1, r9, sl, ip, sp, lr}
    2168:	03055101 	movweq	r5, #20737	; 0x5101
    216c:	00009158 	andeq	r9, r0, r8, asr r1
    2170:	01520119 	cmpeq	r2, r9, lsl r1
    2174:	04180033 	ldreq	r0, [r8], #-51	; 0xffffffcd
    2178:	5000008c 	andpl	r0, r0, ip, lsl #1
    217c:	ef00000a 	svc	0x0000000a
    2180:	19000002 	stmdbne	r0, {r1}
    2184:	76025001 	strvc	r5, [r2], -r1
    2188:	51011900 	tstpl	r1, r0, lsl #18
    218c:	915c0305 	cmpls	ip, r5, lsl #6
    2190:	01190000 	tsteq	r9, r0
    2194:	00330152 	eorseq	r0, r3, r2, asr r1
    2198:	008c3c18 	addeq	r3, ip, r8, lsl ip
    219c:	000a5000 	andeq	r5, sl, r0
    21a0:	00031100 	andeq	r1, r3, r0, lsl #2
    21a4:	50011900 	andpl	r1, r1, r0, lsl #18
    21a8:	19007602 	stmdbne	r0, {r1, r9, sl, ip, sp, lr}
    21ac:	03055101 	movweq	r5, #20737	; 0x5101
    21b0:	00009158 	andeq	r9, r0, r8, asr r1
    21b4:	01520119 	cmpeq	r2, r9, lsl r1
    21b8:	54180033 	ldrpl	r0, [r8], #-51	; 0xffffffcd
    21bc:	5000008c 	andpl	r0, r0, ip, lsl #1
    21c0:	3300000a 	movwcc	r0, #10
    21c4:	19000003 	stmdbne	r0, {r0, r1}
    21c8:	76025001 	strvc	r5, [r2], -r1
    21cc:	51011900 	tstpl	r1, r0, lsl #18
    21d0:	915c0305 	cmpls	ip, r5, lsl #6
    21d4:	01190000 	tsteq	r9, r0
    21d8:	00330152 	eorseq	r0, r3, r2, asr r1
    21dc:	008c7c18 	addeq	r7, ip, r8, lsl ip
    21e0:	00070000 	andeq	r0, r7, r0
    21e4:	00036700 	andeq	r6, r3, r0, lsl #14
    21e8:	50011900 	andpl	r1, r1, r0, lsl #18
    21ec:	01193a01 	tsteq	r9, r1, lsl #20
    21f0:	d0910351 	addsle	r0, r1, r1, asr r3
    21f4:	5201197d 	andpl	r1, r1, #2048000	; 0x1f4000
    21f8:	19800802 	stmibne	r0, {r1, fp}
    21fc:	77025301 	strvc	r5, [r2, -r1, lsl #6]
    2200:	7d021900 	vstrvc.16	s2, [r2, #-0]	; <UNPREDICTABLE>
    2204:	00750200 	rsbseq	r0, r5, r0, lsl #4
    2208:	047d0219 	ldrbteq	r0, [sp], #-537	; 0xfffffde7
    220c:	00007602 	andeq	r7, r0, r2, lsl #12
    2210:	008c9c18 	addeq	r9, ip, r8, lsl ip
    2214:	00070000 	andeq	r0, r7, r0
    2218:	00039b00 	andeq	r9, r3, r0, lsl #22
    221c:	50011900 	andpl	r1, r1, r0, lsl #18
    2220:	01193a01 	tsteq	r9, r1, lsl #20
    2224:	d0910351 	addsle	r0, r1, r1, asr r3
    2228:	5201197e 	andpl	r1, r1, #2064384	; 0x1f8000
    222c:	19800802 	stmibne	r0, {r1, fp}
    2230:	7a025301 	bvc	96e3c <__bss_end__+0x8d7d4>
    2234:	7d021900 	vstrvc.16	s2, [r2, #-0]	; <UNPREDICTABLE>
    2238:	00750200 	rsbseq	r0, r5, r0, lsl #4
    223c:	047d0219 	ldrbteq	r0, [sp], #-537	; 0xfffffde7
    2240:	00007602 	andeq	r7, r0, r2, lsl #12
    2244:	008ca818 	addeq	sl, ip, r8, lsl r8
    2248:	000a5c00 	andeq	r5, sl, r0, lsl #24
    224c:	0003b900 	andeq	fp, r3, r0, lsl #18
    2250:	50011900 	andpl	r1, r1, r0, lsl #18
    2254:	7dd09103 	ldfvcp	f1, [r0, #12]
    2258:	05510119 	ldrbeq	r0, [r1, #-281]	; 0xfffffee7
    225c:	00911c03 	addseq	r1, r1, r3, lsl #24
    2260:	bc180000 	ldclt	0, cr0, [r8], {-0}
    2264:	6800008c 	stmdavs	r0, {r2, r3, r7}
    2268:	d500000a 	strle	r0, [r0, #-10]
    226c:	19000003 	stmdbne	r0, {r0, r1}
    2270:	91035001 	tstls	r3, r1
    2274:	01197dd0 			; <UNDEFINED> instruction: 0x01197dd0
    2278:	d0910351 	addsle	r0, r1, r1, asr r3
    227c:	e018007e 	ands	r0, r8, lr, ror r0
    2280:	7400008c 	strvc	r0, [r0], #-140	; 0xffffff74
    2284:	0e00000a 	cdpeq	0, 0, cr0, cr0, cr10, {0}
    2288:	19000004 	stmdbne	r0, {r2}
    228c:	03055001 	movweq	r5, #20481	; 0x5001
    2290:	00009108 	andeq	r9, r0, r8, lsl #2
    2294:	05510119 	ldrbeq	r0, [r1, #-281]	; 0xfffffee7
    2298:	0090f403 	addseq	pc, r0, r3, lsl #8
    229c:	52011900 	andpl	r1, r1, #0, 18
    22a0:	92540305 	subsls	r0, r4, #335544320	; 0x14000000
    22a4:	01190000 	tsteq	r9, r0
    22a8:	9f080253 	svcls	0x00080253
    22ac:	007d0219 	rsbseq	r0, sp, r9, lsl r2
    22b0:	91600305 	cmnls	r0, r5, lsl #6
    22b4:	1a000000 	bne	22bc <__code_start__-0x5d44>
    22b8:	00008ce4 	andeq	r8, r0, r4, ror #25
    22bc:	00000a80 	andeq	r0, r0, r0, lsl #21
    22c0:	008d0418 	addeq	r0, sp, r8, lsl r4
    22c4:	00070000 	andeq	r0, r7, r0
    22c8:	00044b00 	andeq	r4, r4, r0, lsl #22
    22cc:	50011900 	andpl	r1, r1, r0, lsl #18
    22d0:	01194001 	tsteq	r9, r1
    22d4:	d0910351 	addsle	r0, r1, r1, asr r3
    22d8:	5201197d 	andpl	r1, r1, #2048000	; 0x1f4000
    22dc:	19800802 	stmibne	r0, {r1, fp}
    22e0:	77025301 	strvc	r5, [r2, -r1, lsl #6]
    22e4:	7d021900 	vstrvc.16	s2, [r2, #-0]	; <UNPREDICTABLE>
    22e8:	00750200 	rsbseq	r0, r5, r0, lsl #4
    22ec:	047d0219 	ldrbteq	r0, [sp], #-537	; 0xfffffde7
    22f0:	00007602 	andeq	r7, r0, r2, lsl #12
    22f4:	008d2418 	addeq	r2, sp, r8, lsl r4
    22f8:	00070000 	andeq	r0, r7, r0
    22fc:	00047f00 	andeq	r7, r4, r0, lsl #30
    2300:	50011900 	andpl	r1, r1, r0, lsl #18
    2304:	01194001 	tsteq	r9, r1
    2308:	d0910351 	addsle	r0, r1, r1, asr r3
    230c:	5201197e 	andpl	r1, r1, #2064384	; 0x1f8000
    2310:	19800802 	stmibne	r0, {r1, fp}
    2314:	7a025301 	bvc	96f20 <__bss_end__+0x8d8b8>
    2318:	7d021900 	vstrvc.16	s2, [r2, #-0]	; <UNPREDICTABLE>
    231c:	00750200 	rsbseq	r0, r5, r0, lsl #4
    2320:	047d0219 	ldrbteq	r0, [sp], #-537	; 0xfffffde7
    2324:	00007602 	andeq	r7, r0, r2, lsl #12
    2328:	008d3018 	addeq	r3, sp, r8, lsl r0
    232c:	000a8c00 	andeq	r8, sl, r0, lsl #24
    2330:	00049b00 	andeq	r9, r4, r0, lsl #22
    2334:	50011900 	andpl	r1, r1, r0, lsl #18
    2338:	7dd09103 	ldfvcp	f1, [r0, #12]
    233c:	03510119 	cmpeq	r1, #1073741830	; 0x40000006
    2340:	007ed291 			; <UNDEFINED> instruction: 0x007ed291
    2344:	008d4418 	addeq	r4, sp, r8, lsl r4
    2348:	000a8c00 	andeq	r8, sl, r0, lsl #24
    234c:	0004b700 	andeq	fp, r4, r0, lsl #14
    2350:	50011900 	andpl	r1, r1, r0, lsl #18
    2354:	7dd09103 	ldfvcp	f1, [r0, #12]
    2358:	03510119 	cmpeq	r1, #1073741830	; 0x40000006
    235c:	007ed091 			; <UNDEFINED> instruction: 0x007ed091
    2360:	008d6418 	addeq	r6, sp, r8, lsl r4
    2364:	000a7400 	andeq	r7, sl, r0, lsl #8
    2368:	0004ed00 	andeq	lr, r4, r0, lsl #26
    236c:	50011900 	andpl	r1, r1, r0, lsl #18
    2370:	919c0305 	orrsls	r0, ip, r5, lsl #6
    2374:	01190000 	tsteq	r9, r0
    2378:	f4030551 	vst3.16	{d0,d2,d4}, [r3 :64], r1
    237c:	19000090 	stmdbne	r0, {r4, r7}
    2380:	03055201 	movweq	r5, #20993	; 0x5201
    2384:	00009254 	andeq	r9, r0, r4, asr r2
    2388:	02530119 	subseq	r0, r3, #1073741830	; 0x40000006
    238c:	0219b608 	andseq	fp, r9, #8, 12	; 0x800000
    2390:	7602007d 			; <UNDEFINED> instruction: 0x7602007d
    2394:	681a0000 	ldmdavs	sl, {}	; <UNPREDICTABLE>
    2398:	8000008d 	andhi	r0, r0, sp, lsl #1
    239c:	0000000a 	andeq	r0, r0, sl
    23a0:	008b2c18 	addeq	r2, fp, r8, lsl ip
    23a4:	00097e00 	andeq	r7, r9, r0, lsl #28
    23a8:	00050b00 	andeq	r0, r5, r0, lsl #22
    23ac:	50011900 	andpl	r1, r1, r0, lsl #18
    23b0:	00007702 	andeq	r7, r0, r2, lsl #14
    23b4:	008bd818 	addeq	sp, fp, r8, lsl r8
    23b8:	000a7400 	andeq	r7, sl, r0, lsl #8
    23bc:	00054400 	andeq	r4, r5, r0, lsl #8
    23c0:	50011900 	andpl	r1, r1, r0, lsl #18
    23c4:	91080305 	tstls	r8, r5, lsl #6
    23c8:	01190000 	tsteq	r9, r0
    23cc:	f4030551 	vst3.16	{d0,d2,d4}, [r3 :64], r1
    23d0:	19000090 	stmdbne	r0, {r4, r7}
    23d4:	03055201 	movweq	r5, #20993	; 0x5201
    23d8:	00009254 	andeq	r9, r0, r4, asr r2
    23dc:	02530119 	subseq	r0, r3, #1073741830	; 0x40000006
    23e0:	02199808 	andseq	r9, r9, #8, 16	; 0x80000
    23e4:	0305007d 	movweq	r0, #20605	; 0x507d
    23e8:	0000914c 	andeq	r9, r0, ip, asr #2
    23ec:	8bdc1a00 	blhi	ff708bf4 <__bss_end__+0xff6ff58c>
    23f0:	0a800000 	beq	fe0023f8 <__bss_end__+0xfdff8d90>
    23f4:	7c180000 	ldcvc	0, cr0, [r8], {-0}
    23f8:	7400008d 	strvc	r0, [r0], #-141	; 0xffffff73
    23fc:	7c00000a 	stcvc	0, cr0, [r0], {10}
    2400:	19000005 	stmdbne	r0, {r0, r2}
    2404:	03055001 	movweq	r5, #20481	; 0x5001
    2408:	000091c4 	andeq	r9, r0, r4, asr #3
    240c:	05510119 	ldrbeq	r0, [r1, #-281]	; 0xfffffee7
    2410:	0090f403 	addseq	pc, r0, r3, lsl #8
    2414:	52011900 	andpl	r1, r1, #0, 18
    2418:	92540305 	subsls	r0, r4, #335544320	; 0x14000000
    241c:	01190000 	tsteq	r9, r0
    2420:	be080253 	mcrlt	2, 0, r0, cr8, cr3, {2}
    2424:	8d801a00 	vstrhi	s2, [r0]
    2428:	0a800000 	beq	fe002430 <__bss_end__+0xfdff8dc8>
    242c:	ac180000 	ldcge	0, cr0, [r8], {-0}
    2430:	0000008d 	andeq	r0, r0, sp, lsl #1
    2434:	b2000007 	andlt	r0, r0, #7
    2438:	19000005 	stmdbne	r0, {r0, r2}
    243c:	3a015001 	bcc	56448 <__bss_end__+0x4cde0>
    2440:	03510119 	cmpeq	r1, #1073741830	; 0x40000006
    2444:	197dd091 	ldmdbne	sp!, {r0, r4, r7, ip, lr, pc}^
    2448:	08025201 	stmdaeq	r2, {r0, r9, ip, lr}
    244c:	7d021980 	vstrvc.16	s2, [r2, #-256]	; 0xffffff00	; <UNPREDICTABLE>
    2450:	00750200 	rsbseq	r0, r5, r0, lsl #4
    2454:	047d0219 	ldrbteq	r0, [sp], #-537	; 0xfffffde7
    2458:	18003101 	stmdane	r0, {r0, r8, ip, sp}
    245c:	00008de4 	andeq	r8, r0, r4, ror #27
    2460:	00000700 	andeq	r0, r0, r0, lsl #14
    2464:	000005df 	ldrdeq	r0, [r0], -pc	; <UNPREDICTABLE>
    2468:	01500119 	cmpeq	r0, r9, lsl r1
    246c:	5101193a 	tstpl	r1, sl, lsr r9
    2470:	7dd09103 	ldfvcp	f1, [r0, #12]
    2474:	02520119 	subseq	r0, r2, #1073741830	; 0x40000006
    2478:	02198008 	andseq	r8, r9, #8
    247c:	7502007d 	strvc	r0, [r2, #-125]	; 0xffffff83
    2480:	7d021900 	vstrvc.16	s2, [r2, #-0]	; <UNPREDICTABLE>
    2484:	00300104 	eorseq	r0, r0, r4, lsl #2
    2488:	008e1818 	addeq	r1, lr, r8, lsl r8
    248c:	00070000 	andeq	r0, r7, r0
    2490:	00060c00 	andeq	r0, r6, r0, lsl #24
    2494:	50011900 	andpl	r1, r1, r0, lsl #18
    2498:	01194001 	tsteq	r9, r1
    249c:	d0910351 	addsle	r0, r1, r1, asr r3
    24a0:	5201197d 	andpl	r1, r1, #2048000	; 0x1f4000
    24a4:	19800802 	stmibne	r0, {r1, fp}
    24a8:	02007d02 	andeq	r7, r0, #2, 26	; 0x80
    24ac:	02190075 	andseq	r0, r9, #117	; 0x75
    24b0:	3001047d 	andcc	r0, r1, sp, ror r4
    24b4:	8e4c1800 	cdphi	8, 4, cr1, cr12, cr0, {0}
    24b8:	07000000 	streq	r0, [r0, -r0]
    24bc:	06390000 	ldrteq	r0, [r9], -r0
    24c0:	01190000 	tsteq	r9, r0
    24c4:	19320150 	ldmdbne	r2!, {r4, r6, r8}
    24c8:	91035101 	tstls	r3, r1, lsl #2
    24cc:	01197dd0 			; <UNDEFINED> instruction: 0x01197dd0
    24d0:	80080252 	andhi	r0, r8, r2, asr r2
    24d4:	007d0219 	rsbseq	r0, sp, r9, lsl r2
    24d8:	19007502 	stmdbne	r0, {r1, r8, sl, ip, sp, lr}
    24dc:	01047d02 	tsteq	r4, r2, lsl #26
    24e0:	94180030 	ldrls	r0, [r8], #-48	; 0xffffffd0
    24e4:	0000008e 	andeq	r0, r0, lr, lsl #1
    24e8:	66000007 	strvs	r0, [r0], -r7
    24ec:	19000006 	stmdbne	r0, {r1, r2}
    24f0:	38015001 	stmdacc	r1, {r0, ip, lr}
    24f4:	03510119 	cmpeq	r1, #1073741830	; 0x40000006
    24f8:	197dd091 	ldmdbne	sp!, {r0, r4, r7, ip, lr, pc}^
    24fc:	08025201 	stmdaeq	r2, {r0, r9, ip, lr}
    2500:	7d021980 	vstrvc.16	s2, [r2, #-256]	; 0xffffff00	; <UNPREDICTABLE>
    2504:	00750200 	rsbseq	r0, r5, r0, lsl #4
    2508:	047d0219 	ldrbteq	r0, [sp], #-537	; 0xfffffde7
    250c:	18003001 	stmdane	r0, {r0, ip, sp}
    2510:	00008eb4 			; <UNDEFINED> instruction: 0x00008eb4
    2514:	00000a74 	andeq	r0, r0, r4, ror sl
    2518:	00000689 	andeq	r0, r0, r9, lsl #13
    251c:	05500119 	ldrbeq	r0, [r0, #-281]	; 0xfffffee7
    2520:	0091ec03 	addseq	lr, r1, r3, lsl #24
    2524:	51011900 	tstpl	r1, r0, lsl #18
    2528:	19007a02 	stmdbne	r0, {r1, r9, fp, ip, sp, lr}
    252c:	7a025201 	bvc	96d38 <__bss_end__+0x8d6d0>
    2530:	c41b0000 	ldrgt	r0, [fp], #-0
    2534:	9b00008e 	blls	2774 <__code_start__-0x588c>
    2538:	19000006 	stmdbne	r0, {r1, r2}
    253c:	91045001 	tstls	r4, r1
    2540:	00067dc8 	andeq	r7, r6, r8, asr #27
    2544:	008ed818 	addeq	sp, lr, r8, lsl r8
    2548:	000a7400 	andeq	r7, sl, r0, lsl #8
    254c:	0006ca00 	andeq	ip, r6, r0, lsl #20
    2550:	50011900 	andpl	r1, r1, r0, lsl #18
    2554:	921c0305 	andsls	r0, ip, #335544320	; 0x14000000
    2558:	01190000 	tsteq	r9, r0
    255c:	f4030551 	vst3.16	{d0,d2,d4}, [r3 :64], r1
    2560:	19000090 	stmdbne	r0, {r4, r7}
    2564:	03055201 	movweq	r5, #20993	; 0x5201
    2568:	00009254 	andeq	r9, r0, r4, asr r2
    256c:	02530119 	subseq	r0, r3, #1073741830	; 0x40000006
    2570:	1a00e208 	bne	3ad98 <__bss_end__+0x31730>
    2574:	00008edc 	ldrdeq	r8, [r0], -ip
    2578:	00000a80 	andeq	r0, r0, r0, lsl #21
    257c:	04080000 	streq	r0, [r8], #-0
    2580:	000000b9 	strheq	r0, [r0], -r9
    2584:	0000c01c 	andeq	ip, r0, ip, lsl r0
    2588:	0006eb00 	andeq	lr, r6, r0, lsl #22
    258c:	002c1d00 	eoreq	r1, ip, r0, lsl #26
    2590:	00090000 	andeq	r0, r9, r0
    2594:	0006db09 	andeq	sp, r6, r9, lsl #22
    2598:	00b91c00 	adcseq	r1, r9, r0, lsl #24
    259c:	07000000 	streq	r0, [r0, -r0]
    25a0:	2c1d0000 	ldccs	0, cr0, [sp], {-0}
    25a4:	7f000000 	svcvc	0x00000000
    25a8:	06e31e00 	strbteq	r1, [r3], r0, lsl #28
    25ac:	49010000 	stmdbmi	r1, {}	; <UNPREDICTABLE>
    25b0:	0006d501 	andeq	sp, r6, r1, lsl #10
    25b4:	00889400 	addeq	r9, r8, r0, lsl #8
    25b8:	0001b400 	andeq	fp, r1, r0, lsl #8
    25bc:	699c0100 	ldmibvs	ip, {r8}
    25c0:	1f000008 	svcne	0x00000008
    25c4:	00000728 	andeq	r0, r0, r8, lsr #14
    25c8:	2c0f4901 			; <UNDEFINED> instruction: 0x2c0f4901
    25cc:	8b000000 	blhi	25d4 <__code_start__-0x5a2c>
    25d0:	85000009 	strhi	r0, [r0, #-9]
    25d4:	0e000009 	cdpeq	0, 0, cr0, cr0, cr9, {0}
    25d8:	00747364 	rsbseq	r7, r4, r4, ror #6
    25dc:	d51b4901 	ldrle	r4, [fp, #-2305]	; 0xfffff6ff
    25e0:	c9000006 	stmdbgt	r0, {r1, r2}
    25e4:	b9000009 	stmdblt	r0, {r0, r3}
    25e8:	0e000009 	cdpeq	0, 0, cr0, cr0, cr9, {0}
    25ec:	4901006e 	stmdbmi	r1, {r1, r2, r3, r5, r6}
    25f0:	00002524 	andeq	r2, r0, r4, lsr #10
    25f4:	000a2d00 	andeq	r2, sl, r0, lsl #26
    25f8:	000a2900 	andeq	r2, sl, r0, lsl #18
    25fc:	61760e00 	cmnvs	r6, r0, lsl #28
    2600:	4901006c 	stmdbmi	r1, {r2, r3, r5, r6}
    2604:	0000252b 	andeq	r2, r0, fp, lsr #10
    2608:	000a5700 	andeq	r5, sl, r0, lsl #14
    260c:	000a4b00 	andeq	r4, sl, r0, lsl #22
    2610:	067f1f00 	ldrbteq	r1, [pc], -r0, lsl #30
    2614:	49010000 	stmdbmi	r1, {}	; <UNPREDICTABLE>
    2618:	00002534 	andeq	r2, r0, r4, lsr r5
    261c:	000aad00 	andeq	sl, sl, r0, lsl #26
    2620:	000aa700 	andeq	sl, sl, r0, lsl #14
    2624:	072d0f00 	streq	r0, [sp, -r0, lsl #30]!
    2628:	49010000 	stmdbmi	r1, {}	; <UNPREDICTABLE>
    262c:	0000253f 	andeq	r2, r0, pc, lsr r5
    2630:	04910200 	ldreq	r0, [r1], #512	; 0x200
    2634:	66756215 			; <UNDEFINED> instruction: 0x66756215
    2638:	074e0100 	strbeq	r0, [lr, -r0, lsl #2]
    263c:	00000869 	andeq	r0, r0, r9, ror #16
    2640:	7fa89103 	svcvc	0x00a89103
    2644:	01007010 	tsteq	r0, r0, lsl r0
    2648:	06d5114e 	ldrbeq	r1, [r5], lr, asr #2
    264c:	0af70000 	beq	ffdc2654 <__bss_end__+0xffdb8fec>
    2650:	0ad70000 	beq	ff5c2658 <__bss_end__+0xff5b8ff0>
    2654:	75100000 	ldrvc	r0, [r0, #-0]
    2658:	0b4f0100 	bleq	13c2a60 <__bss_end__+0x13b93f8>
    265c:	0000002c 	andeq	r0, r0, ip, lsr #32
    2660:	00000bdd 	ldrdeq	r0, [r0], -sp
    2664:	00000bc9 	andeq	r0, r0, r9, asr #23
    2668:	0001ec13 	andeq	lr, r1, r3, lsl ip
    266c:	00088900 	andeq	r8, r8, r0, lsl #18
    2670:	3c030500 	cfstr32cc	mvfx0, [r3], {-0}
    2674:	17000092 			; <UNDEFINED> instruction: 0x17000092
    2678:	00008900 	andeq	r8, r0, r0, lsl #18
    267c:	00000078 	andeq	r0, r0, r8, ror r0
    2680:	000007f0 	strdeq	r0, [r0], -r0	; <UNPREDICTABLE>
    2684:	0006d012 	andeq	sp, r6, r2, lsl r0
    2688:	0d540100 	ldfeqe	f0, [r4, #-0]
    268c:	0000002c 	andeq	r0, r0, ip, lsr #32
    2690:	00000c5e 	andeq	r0, r0, lr, asr ip
    2694:	00000c56 	andeq	r0, r0, r6, asr ip
    2698:	89b81800 	ldmibhi	r8!, {fp, ip}
    269c:	091b0000 	ldmdbeq	fp, {}	; <UNPREDICTABLE>
    26a0:	08050000 	stmdaeq	r5, {}	; <UNPREDICTABLE>
    26a4:	01190000 	tsteq	r9, r0
    26a8:	a0910351 	addsge	r0, r1, r1, asr r3
    26ac:	cc18007f 	ldcgt	0, cr0, [r8], {127}	; 0x7f
    26b0:	8e000089 	cdphi	0, 0, cr0, cr0, cr9, {4}
    26b4:	26000008 	strcs	r0, [r0], -r8
    26b8:	19000008 	stmdbne	r0, {r3}
    26bc:	75025001 	strvc	r5, [r2, #-1]
    26c0:	51011900 	tstpl	r1, r0, lsl #18
    26c4:	19007402 	stmdbne	r0, {r1, sl, ip, sp, lr}
    26c8:	91035301 	tstls	r3, r1, lsl #6
    26cc:	18007fa0 	stmdane	r0, {r5, r7, r8, r9, sl, fp, ip, sp, lr}
    26d0:	00008a24 	andeq	r8, r0, r4, lsr #20
    26d4:	00000a74 	andeq	r0, r0, r4, ror sl
    26d8:	0000085f 	andeq	r0, r0, pc, asr r8
    26dc:	05500119 	ldrbeq	r0, [r0, #-281]	; 0xfffffee7
    26e0:	00910803 	addseq	r0, r1, r3, lsl #16
    26e4:	51011900 	tstpl	r1, r0, lsl #18
    26e8:	90f40305 	rscsls	r0, r4, r5, lsl #6
    26ec:	01190000 	tsteq	r9, r0
    26f0:	3c030552 	cfstr32cc	mvfx0, [r3], {82}	; 0x52
    26f4:	19000092 	stmdbne	r0, {r1, r4, r7}
    26f8:	08025301 	stmdaeq	r2, {r0, r8, r9, ip, lr}
    26fc:	7d021979 	vstrvc.16	s2, [r2, #-242]	; 0xffffff0e	; <UNPREDICTABLE>
    2700:	1c030500 	cfstr32ne	mvfx0, [r3], {-0}
    2704:	00000091 	muleq	r0, r1, r0
    2708:	008a281a 	addeq	r2, sl, sl, lsl r8
    270c:	000a8000 	andeq	r8, sl, r0
    2710:	b91c0000 	ldmdblt	ip, {}	; <UNPREDICTABLE>
    2714:	79000000 	stmdbvc	r0, {}	; <UNPREDICTABLE>
    2718:	1d000008 	stcne	0, cr0, [r0, #-32]	; 0xffffffe0
    271c:	0000002c 	andeq	r0, r0, ip, lsr #32
    2720:	c01c003f 	andsgt	r0, ip, pc, lsr r0
    2724:	89000000 	stmdbhi	r0, {}	; <UNPREDICTABLE>
    2728:	1d000008 	stcne	0, cr0, [r0, #-32]	; 0xffffffe0
    272c:	0000002c 	andeq	r0, r0, ip, lsr #32
    2730:	79090004 	stmdbvc	r9, {r2}
    2734:	1e000008 	cdpne	0, 0, cr0, cr0, cr8, {0}
    2738:	000006f0 	strdeq	r0, [r0], -r0	; <UNPREDICTABLE>
    273c:	d50e3801 	strle	r3, [lr, #-2049]	; 0xfffff7ff
    2740:	5c000006 	stcpl	0, cr0, [r0], {6}
    2744:	38000088 	stmdacc	r0, {r3, r7}
    2748:	01000000 	mrseq	r0, (UNDEF: 0)
    274c:	00091b9c 	muleq	r9, ip, fp
    2750:	73640e00 	cmnvc	r4, #0, 28
    2754:	38010074 	stmdacc	r1, {r2, r4, r5, r6}
    2758:	0006d51c 	andeq	sp, r6, ip, lsl r5
    275c:	000c9f00 	andeq	r9, ip, r0, lsl #30
    2760:	000c9500 	andeq	r9, ip, r0, lsl #10
    2764:	006e0e00 	rsbeq	r0, lr, r0, lsl #28
    2768:	25253801 	strcs	r3, [r5, #-2049]!	; 0xfffff7ff
    276c:	e6000000 	str	r0, [r0], -r0
    2770:	e200000c 	and	r0, r0, #12
    2774:	0e00000c 	cdpeq	0, 0, cr0, cr0, cr12, {0}
    2778:	38010070 	stmdacc	r1, {r4, r5, r6}
    277c:	0006d52e 	andeq	sp, r6, lr, lsr #10
    2780:	000d0f00 	andeq	r0, sp, r0, lsl #30
    2784:	000d0700 	andeq	r0, sp, r0, lsl #14
    2788:	06bc1f00 	ldrteq	r1, [ip], r0, lsl #30
    278c:	38010000 	stmdacc	r1, {}	; <UNPREDICTABLE>
    2790:	0006d537 	andeq	sp, r6, r7, lsr r5
    2794:	000d4900 	andeq	r4, sp, r0, lsl #18
    2798:	000d4500 	andeq	r4, sp, r0, lsl #10
    279c:	656c1000 	strbvs	r1, [ip, #-0]!
    27a0:	3a01006e 	bcc	42960 <__bss_end__+0x392f8>
    27a4:	00002506 	andeq	r2, r0, r6, lsl #10
    27a8:	000d6f00 	andeq	r6, sp, r0, lsl #30
    27ac:	000d6700 	andeq	r6, sp, r0, lsl #14
    27b0:	00731000 	rsbseq	r1, r3, r0
    27b4:	d5083e01 	strle	r3, [r8, #-3585]	; 0xfffff1ff
    27b8:	bd000006 	stclt	0, cr0, [r0, #-24]	; 0xffffffe8
    27bc:	bb00000d 	bllt	27f8 <__code_start__-0x5808>
    27c0:	0000000d 	andeq	r0, r0, sp
    27c4:	64617020 	strbtvs	r7, [r1], #-32	; 0xffffffe0
    27c8:	0e2e0100 	sufeqe	f0, f6, f0
    27cc:	000006d5 	ldrdeq	r0, [r0], -r5
    27d0:	00008838 	andeq	r8, r0, r8, lsr r8
    27d4:	00000024 	andeq	r0, r0, r4, lsr #32
    27d8:	097e9c01 	ldmdbeq	lr!, {r0, sl, fp, ip, pc}^
    27dc:	700e0000 	andvc	r0, lr, r0
    27e0:	182e0100 	stmdane	lr!, {r8}
    27e4:	000006d5 	ldrdeq	r0, [r0], -r5
    27e8:	00000dd6 	ldrdeq	r0, [r0], -r6
    27ec:	00000dd0 	ldrdeq	r0, [r0], -r0	; <UNPREDICTABLE>
    27f0:	0007281f 	andeq	r2, r7, pc, lsl r8
    27f4:	222e0100 	eorcs	r0, lr, #0, 2
    27f8:	000006d5 	ldrdeq	r0, [r0], -r5
    27fc:	00000e05 	andeq	r0, r0, r5, lsl #28
    2800:	00000e01 	andeq	r0, r0, r1, lsl #28
    2804:	00067f0f 	andeq	r7, r6, pc, lsl #30
    2808:	2c2e0100 	stfcss	f0, [lr], #-0
    280c:	00000025 	andeq	r0, r0, r5, lsr #32
    2810:	6c105201 	lfmvs	f5, 4, [r0], {1}
    2814:	01006e65 	tsteq	r0, r5, ror #28
    2818:	0025062f 	eoreq	r0, r5, pc, lsr #12
    281c:	0e280000 	cdpeq	0, 2, cr0, cr8, cr0, {0}
    2820:	0e260000 	cdpeq	0, 2, cr0, cr6, cr0, {0}
    2824:	1e000000 	cdpne	0, 0, cr0, cr0, cr0, {0}
    2828:	0000064c 	andeq	r0, r0, ip, asr #12
    282c:	250c2701 	strcs	r2, [ip, #-1793]	; 0xfffff8ff
    2830:	24000000 	strcs	r0, [r0], #-0
    2834:	14000088 	strne	r0, [r0], #-136	; 0xffffff78
    2838:	01000000 	mrseq	r0, (UNDEF: 0)
    283c:	0009ab9c 	muleq	r9, ip, fp
    2840:	00630e00 	rsbeq	r0, r3, r0, lsl #28
    2844:	25182701 	ldrcs	r2, [r8, #-1793]	; 0xfffff8ff
    2848:	41000000 	mrsmi	r0, (UNDEF: 0)
    284c:	3b00000e 	blcc	288c <__code_start__-0x5774>
    2850:	0000000e 	andeq	r0, r0, lr
    2854:	0006a921 	andeq	sl, r6, r1, lsr #18
    2858:	061f0100 	ldreq	r0, [pc], -r0, lsl #2
    285c:	00008a48 	andeq	r8, r0, r8, asr #20
    2860:	00000064 	andeq	r0, r0, r4, rrx
    2864:	0a3b9c01 	beq	ee9870 <__bss_end__+0xee0208>
    2868:	921f0000 	andsls	r0, pc, #0
    286c:	01000006 	tsteq	r0, r6
    2870:	009e1b1f 	addseq	r1, lr, pc, lsl fp
    2874:	0e730000 	cdpeq	0, 7, cr0, cr3, cr0, {0}
    2878:	0e6f0000 	cdpeq	0, 6, cr0, cr15, cr0, {0}
    287c:	e81f0000 	ldmda	pc, {}	; <UNPREDICTABLE>
    2880:	01000006 	tsteq	r0, r6
    2884:	00d1301f 	sbcseq	r3, r1, pc, lsl r0
    2888:	0e980000 	cdpeq	0, 9, cr0, cr8, cr0, {0}
    288c:	0e940000 	cdpeq	0, 9, cr0, cr4, cr0, {0}
    2890:	ec130000 	ldc	0, cr0, [r3], {-0}
    2894:	4b000001 	blmi	28a0 <__code_start__-0x5760>
    2898:	0500000a 	streq	r0, [r0, #-10]
    289c:	00924403 	addseq	r4, r2, r3, lsl #8
    28a0:	8a901800 	bhi	fe4088a8 <__bss_end__+0xfe3ff240>
    28a4:	0a740000 	beq	1d028ac <__bss_end__+0x1cf9244>
    28a8:	0a310000 	beq	c428b0 <__bss_end__+0xc39248>
    28ac:	01190000 	tsteq	r9, r0
    28b0:	08030550 	stmdaeq	r3, {r4, r6, r8, sl}
    28b4:	19000091 	stmdbne	r0, {r0, r4, r7}
    28b8:	03055101 	movweq	r5, #20737	; 0x5101
    28bc:	000090f4 	strdeq	r9, [r0], -r4
    28c0:	05520119 	ldrbeq	r0, [r2, #-281]	; 0xfffffee7
    28c4:	00924403 	addseq	r4, r2, r3, lsl #8
    28c8:	53011900 	movwpl	r1, #6400	; 0x1900
    28cc:	19200802 	stmdbne	r0!, {r1, fp}
    28d0:	05007d02 	streq	r7, [r0, #-3330]	; 0xfffff2fe
    28d4:	00914403 	addseq	r4, r1, r3, lsl #8
    28d8:	941a0000 	ldrls	r0, [sl], #-0
    28dc:	8000008a 	andhi	r0, r0, sl, lsl #1
    28e0:	0000000a 	andeq	r0, r0, sl
    28e4:	0000c01c 	andeq	ip, r0, ip, lsl r0
    28e8:	000a4b00 	andeq	r4, sl, r0, lsl #22
    28ec:	002c1d00 	eoreq	r1, ip, r0, lsl #26
    28f0:	000e0000 	andeq	r0, lr, r0
    28f4:	000a3b09 	andeq	r3, sl, r9, lsl #22
    28f8:	07202200 	streq	r2, [r0, -r0, lsl #4]!
    28fc:	07200000 	streq	r0, [r0, -r0]!
    2900:	eb030000 	bl	c2908 <__bss_end__+0xb92a0>
    2904:	06f82205 	ldrbteq	r2, [r8], r5, lsl #4
    2908:	06f80000 	ldrbteq	r0, [r8], r0
    290c:	ea030000 	b	c2914 <__bss_end__+0xb92ac>
    2910:	06c92205 	strbeq	r2, [r9], r5, lsl #4
    2914:	06c90000 	strbeq	r0, [r9], r0
    2918:	ed030000 	stc	0, cr0, [r3, #-0]
    291c:	03a82207 			; <UNDEFINED> instruction: 0x03a82207
    2920:	03a80000 			; <UNDEFINED> instruction: 0x03a80000
    2924:	28030000 	stmdacs	r3, {}	; <UNPREDICTABLE>
    2928:	01b02206 	lslseq	r2, r6, #4
    292c:	01b00000 	movseq	r0, r0
    2930:	6e030000 	cdpvs	0, 0, cr0, cr3, cr0, {0}
    2934:	06c22206 	strbeq	r2, [r2], r6, lsl #4
    2938:	06c20000 	strbeq	r0, [r2], r0
    293c:	ee030000 	cdp	0, 0, cr0, cr3, cr0, {0}
    2940:	00f70007 	rscseq	r0, r7, r7
    2944:	00040000 	andeq	r0, r4, r0
    2948:	00000f11 	andeq	r0, r0, r1, lsl pc
    294c:	00bb0104 	adcseq	r0, fp, r4, lsl #2
    2950:	360c0000 	strcc	r0, [ip], -r0
    2954:	c8000007 	stmdagt	r0, {r0, r1, r2}
    2958:	44000002 	strmi	r0, [r0], #-2
    295c:	2c00008f 	stccs	0, cr0, [r0], {143}	; 0x8f
    2960:	9b000000 	blls	2968 <__code_start__-0x5698>
    2964:	02000012 	andeq	r0, r0, #18
    2968:	6e690504 	cdpvs	5, 6, cr0, cr9, cr4, {0}
    296c:	04030074 	streq	r0, [r3], #-116	; 0xffffff8c
    2970:	00004607 	andeq	r4, r0, r7, lsl #12
    2974:	06010300 	streq	r0, [r1], -r0, lsl #6
    2978:	0000001d 	andeq	r0, r0, sp, lsl r0
    297c:	6d050203 	sfmvs	f0, 4, [r5, #-12]
    2980:	03000000 	movweq	r0, #0
    2984:	00580504 	subseq	r0, r8, r4, lsl #10
    2988:	08030000 	stmdaeq	r3, {}	; <UNPREDICTABLE>
    298c:	00005305 	andeq	r5, r0, r5, lsl #6
    2990:	08010300 	stmdaeq	r1, {r8, r9}
    2994:	0000001b 	andeq	r0, r0, fp, lsl r0
    2998:	29070203 	stmdbcs	r7, {r0, r1, r9}
    299c:	03000000 	movweq	r0, #0
    29a0:	00410704 	subeq	r0, r1, r4, lsl #14
    29a4:	08030000 	stmdaeq	r3, {}	; <UNPREDICTABLE>
    29a8:	00003c07 	andeq	r3, r0, r7, lsl #24
    29ac:	00250400 	eoreq	r0, r5, r0, lsl #8
    29b0:	007a0000 	rsbseq	r0, sl, r0
    29b4:	25050000 	strcs	r0, [r5, #-0]
    29b8:	00000000 	andeq	r0, r0, r0
    29bc:	00006106 	andeq	r6, r0, r6, lsl #2
    29c0:	0e1c0200 	cdpeq	2, 1, cr0, cr12, cr0, {0}
    29c4:	00000086 	andeq	r0, r0, r6, lsl #1
    29c8:	006b0407 	rsbeq	r0, fp, r7, lsl #8
    29cc:	25040000 	strcs	r0, [r4, #-0]
    29d0:	9b000000 	blls	29d8 <__code_start__-0x5628>
    29d4:	05000000 	streq	r0, [r0, #-0]
    29d8:	0000009b 	muleq	r0, fp, r0
    29dc:	a8040700 	stmdage	r4, {r8, r9, sl}
    29e0:	03000000 	movweq	r0, #0
    29e4:	00240801 	eoreq	r0, r4, r1, lsl #16
    29e8:	a1080000 	mrsge	r0, (UNDEF: 8)
    29ec:	06000000 	streq	r0, [r0], -r0
    29f0:	000003e6 	andeq	r0, r0, r6, ror #7
    29f4:	b90e2102 	stmdblt	lr, {r1, r8, sp}
    29f8:	07000000 	streq	r0, [r0, -r0]
    29fc:	00008c04 	andeq	r8, r0, r4, lsl #24
    2a00:	06f80900 	ldrbteq	r0, [r8], r0, lsl #18
    2a04:	03010000 	movweq	r0, #4096	; 0x1000
    2a08:	00002505 	andeq	r2, r0, r5, lsl #10
    2a0c:	008f4400 	addeq	r4, pc, r0, lsl #8
    2a10:	00002c00 	andeq	r2, r0, r0, lsl #24
    2a14:	0a9c0100 	beq	fe702e1c <__bss_end__+0xfe6f97b4>
    2a18:	03010061 	movweq	r0, #4193	; 0x1061
    2a1c:	00009b18 	andeq	r9, r0, r8, lsl fp
    2a20:	000ebd00 	andeq	fp, lr, r0, lsl #26
    2a24:	000eb900 	andeq	fp, lr, r0, lsl #18
    2a28:	00620a00 	rsbeq	r0, r2, r0, lsl #20
    2a2c:	9b270301 	blls	9c3638 <__bss_end__+0x9b9fd0>
    2a30:	df000000 	svcle	0x00000000
    2a34:	db00000e 	blle	2a74 <__code_start__-0x558c>
    2a38:	0000000e 	andeq	r0, r0, lr
    2a3c:	00010f00 	andeq	r0, r1, r0, lsl #30
    2a40:	a0000400 	andge	r0, r0, r0, lsl #8
    2a44:	0400000f 	streq	r0, [r0], #-15
    2a48:	0000bb01 	andeq	fp, r0, r1, lsl #22
    2a4c:	07460c00 	strbeq	r0, [r6, -r0, lsl #24]
    2a50:	02c80000 	sbceq	r0, r8, #0
    2a54:	8f700000 	svchi	0x00700000
    2a58:	00200000 	eoreq	r0, r0, r0
    2a5c:	133e0000 	teqne	lr, #0
    2a60:	04020000 	streq	r0, [r2], #-0
    2a64:	746e6905 	strbtvc	r6, [lr], #-2309	; 0xfffff6fb
    2a68:	07040300 	streq	r0, [r4, -r0, lsl #6]
    2a6c:	00000046 	andeq	r0, r0, r6, asr #32
    2a70:	1d060103 	stfnes	f0, [r6, #-12]
    2a74:	03000000 	movweq	r0, #0
    2a78:	006d0502 	rsbeq	r0, sp, r2, lsl #10
    2a7c:	04030000 	streq	r0, [r3], #-0
    2a80:	00005805 	andeq	r5, r0, r5, lsl #16
    2a84:	05080300 	streq	r0, [r8, #-768]	; 0xfffffd00
    2a88:	00000053 	andeq	r0, r0, r3, asr r0
    2a8c:	1b080103 	blne	202ea0 <__bss_end__+0x1f9838>
    2a90:	03000000 	movweq	r0, #0
    2a94:	00290702 	eoreq	r0, r9, r2, lsl #14
    2a98:	04030000 	streq	r0, [r3], #-0
    2a9c:	00004107 	andeq	r4, r0, r7, lsl #2
    2aa0:	07080300 	streq	r0, [r8, -r0, lsl #6]
    2aa4:	0000003c 	andeq	r0, r0, ip, lsr r0
    2aa8:	00002504 	andeq	r2, r0, r4, lsl #10
    2aac:	00007a00 	andeq	r7, r0, r0, lsl #20
    2ab0:	00250500 	eoreq	r0, r5, r0, lsl #10
    2ab4:	06000000 	streq	r0, [r0], -r0
    2ab8:	00000061 	andeq	r0, r0, r1, rrx
    2abc:	860e1c02 	strhi	r1, [lr], -r2, lsl #24
    2ac0:	07000000 	streq	r0, [r0, -r0]
    2ac4:	00006b04 	andeq	r6, r0, r4, lsl #22
    2ac8:	00250400 	eoreq	r0, r5, r0, lsl #8
    2acc:	009b0000 	addseq	r0, fp, r0
    2ad0:	9b050000 	blls	142ad8 <__bss_end__+0x139470>
    2ad4:	00000000 	andeq	r0, r0, r0
    2ad8:	00a80407 	adceq	r0, r8, r7, lsl #8
    2adc:	01030000 	mrseq	r0, (UNDEF: 3)
    2ae0:	00002408 	andeq	r2, r0, r8, lsl #8
    2ae4:	00a10800 	adceq	r0, r1, r0, lsl #16
    2ae8:	e6060000 	str	r0, [r6], -r0
    2aec:	02000003 	andeq	r0, r0, #3
    2af0:	00b90e21 	adcseq	r0, r9, r1, lsr #28
    2af4:	04070000 	streq	r0, [r7], #-0
    2af8:	0000008c 	andeq	r0, r0, ip, lsl #1
    2afc:	0006c909 	andeq	ip, r6, r9, lsl #18
    2b00:	07030100 	streq	r0, [r3, -r0, lsl #2]
    2b04:	0000010c 	andeq	r0, r0, ip, lsl #2
    2b08:	00008f70 	andeq	r8, r0, r0, ror pc
    2b0c:	00000020 	andeq	r0, r0, r0, lsr #32
    2b10:	010c9c01 	tsteq	ip, r1, lsl #24
    2b14:	730a0000 	movwvc	r0, #40960	; 0xa000
    2b18:	03010031 	movweq	r0, #4145	; 0x1031
    2b1c:	00010c15 	andeq	r0, r1, r5, lsl ip
    2b20:	0b500100 	bleq	1402f28 <__bss_end__+0x13f98c0>
    2b24:	01003273 	tsteq	r0, r3, ror r2
    2b28:	009b2603 	addseq	r2, fp, r3, lsl #12
    2b2c:	0f030000 	svceq	0x00030000
    2b30:	0efd0000 	cdpeq	0, 15, cr0, cr13, cr0, {0}
    2b34:	730c0000 	movwvc	r0, #49152	; 0xc000
    2b38:	14040100 	strne	r0, [r4], #-256	; 0xffffff00
    2b3c:	0000010c 	andeq	r0, r0, ip, lsl #2
    2b40:	00000f34 	andeq	r0, r0, r4, lsr pc
    2b44:	00000f2e 	andeq	r0, r0, lr, lsr #30
    2b48:	a1040700 	tstge	r4, r0, lsl #14
    2b4c:	00000000 	andeq	r0, r0, r0
    2b50:	00000137 	andeq	r0, r0, r7, lsr r1
    2b54:	10560004 	subsne	r0, r6, r4
    2b58:	01040000 	mrseq	r0, (UNDEF: 4)
    2b5c:	000000bb 	strheq	r0, [r0], -fp
    2b60:	0007560c 	andeq	r5, r7, ip, lsl #12
    2b64:	0002c800 	andeq	ip, r2, r0, lsl #16
    2b68:	008f9000 	addeq	r9, pc, r0
    2b6c:	00003400 	andeq	r3, r0, r0, lsl #8
    2b70:	0013df00 	andseq	sp, r3, r0, lsl #30
    2b74:	05040200 	streq	r0, [r4, #-512]	; 0xfffffe00
    2b78:	00746e69 	rsbseq	r6, r4, r9, ror #28
    2b7c:	46070403 	strmi	r0, [r7], -r3, lsl #8
    2b80:	03000000 	movweq	r0, #0
    2b84:	001d0601 	andseq	r0, sp, r1, lsl #12
    2b88:	02030000 	andeq	r0, r3, #0
    2b8c:	00006d05 	andeq	r6, r0, r5, lsl #26
    2b90:	05040300 	streq	r0, [r4, #-768]	; 0xfffffd00
    2b94:	00000058 	andeq	r0, r0, r8, asr r0
    2b98:	53050803 	movwpl	r0, #22531	; 0x5803
    2b9c:	03000000 	movweq	r0, #0
    2ba0:	001b0801 	andseq	r0, fp, r1, lsl #16
    2ba4:	02030000 	andeq	r0, r3, #0
    2ba8:	00002907 	andeq	r2, r0, r7, lsl #18
    2bac:	07040300 	streq	r0, [r4, -r0, lsl #6]
    2bb0:	00000041 	andeq	r0, r0, r1, asr #32
    2bb4:	3c070803 	stccc	8, cr0, [r7], {3}
    2bb8:	04000000 	streq	r0, [r0], #-0
    2bbc:	00000025 	andeq	r0, r0, r5, lsr #32
    2bc0:	0000007a 	andeq	r0, r0, sl, ror r0
    2bc4:	00002505 	andeq	r2, r0, r5, lsl #10
    2bc8:	61060000 	mrsvs	r0, (UNDEF: 6)
    2bcc:	02000000 	andeq	r0, r0, #0
    2bd0:	00860e1c 	addeq	r0, r6, ip, lsl lr
    2bd4:	04070000 	streq	r0, [r7], #-0
    2bd8:	0000006b 	andeq	r0, r0, fp, rrx
    2bdc:	00002504 	andeq	r2, r0, r4, lsl #10
    2be0:	00009b00 	andeq	r9, r0, r0, lsl #22
    2be4:	009b0500 	addseq	r0, fp, r0, lsl #10
    2be8:	07000000 	streq	r0, [r0, -r0]
    2bec:	0000a804 	andeq	sl, r0, r4, lsl #16
    2bf0:	08010300 	stmdaeq	r1, {r8, r9}
    2bf4:	00000024 	andeq	r0, r0, r4, lsr #32
    2bf8:	0000a108 	andeq	sl, r0, r8, lsl #2
    2bfc:	03e60600 	mvneq	r0, #0, 12
    2c00:	21020000 	mrscs	r0, (UNDEF: 2)
    2c04:	0000b90e 	andeq	fp, r0, lr, lsl #18
    2c08:	8c040700 	stchi	7, cr0, [r4], {-0}
    2c0c:	09000000 	stmdbeq	r0, {}	; <UNPREDICTABLE>
    2c10:	000006c2 	andeq	r0, r0, r2, asr #13
    2c14:	34070401 	strcc	r0, [r7], #-1025	; 0xfffffbff
    2c18:	90000001 	andls	r0, r0, r1
    2c1c:	3400008f 	strcc	r0, [r0], #-143	; 0xffffff71
    2c20:	01000000 	mrseq	r0, (UNDEF: 0)
    2c24:	0001349c 	muleq	r1, ip, r4
    2c28:	07660a00 	strbeq	r0, [r6, -r0, lsl #20]!
    2c2c:	04010000 	streq	r0, [r1], #-0
    2c30:	00013415 	andeq	r3, r1, r5, lsl r4
    2c34:	0b500100 	bleq	140303c <__bss_end__+0x13f99d4>
    2c38:	00637273 	rsbeq	r7, r3, r3, ror r2
    2c3c:	9b270401 	blls	9c3c48 <__bss_end__+0x9ba5e0>
    2c40:	63000000 	movwvs	r0, #0
    2c44:	5f00000f 	svcpl	0x0000000f
    2c48:	0c00000f 	stceq	0, cr0, [r0], {15}
    2c4c:	01003173 	tsteq	r0, r3, ror r1
    2c50:	01340b05 	teqeq	r4, r5, lsl #22
    2c54:	0f8e0000 	svceq	0x008e0000
    2c58:	0f840000 	svceq	0x00840000
    2c5c:	730c0000 	movwvc	r0, #49152	; 0xc000
    2c60:	06010032 			; <UNDEFINED> instruction: 0x06010032
    2c64:	00009b11 	andeq	r9, r0, r1, lsl fp
    2c68:	000fd300 	andeq	sp, pc, r0, lsl #6
    2c6c:	000fcf00 	andeq	ip, pc, r0, lsl #30
    2c70:	00630c00 	rsbeq	r0, r3, r0, lsl #24
    2c74:	a10a0701 	tstge	sl, r1, lsl #14
    2c78:	f7000000 			; <UNDEFINED> instruction: 0xf7000000
    2c7c:	f300000f 	vhadd.u8	d0, d0, d15
    2c80:	0000000f 	andeq	r0, r0, pc
    2c84:	00a10407 	adceq	r0, r1, r7, lsl #8
    2c88:	4e000000 	cdpmi	0, 0, cr0, cr0, cr0, {0}
    2c8c:	04000001 	streq	r0, [r0], #-1
    2c90:	00110c00 	andseq	r0, r1, r0, lsl #24
    2c94:	bb010400 	bllt	43c9c <__bss_end__+0x3a634>
    2c98:	0c000000 	stceq	0, cr0, [r0], {-0}
    2c9c:	00000772 	andeq	r0, r0, r2, ror r7
    2ca0:	000002c8 	andeq	r0, r0, r8, asr #5
    2ca4:	00000028 	andeq	r0, r0, r8, lsr #32
    2ca8:	00000000 	andeq	r0, r0, r0
    2cac:	000014c9 	andeq	r1, r0, r9, asr #9
    2cb0:	69050402 	stmdbvs	r5, {r1, sl}
    2cb4:	0300746e 	movweq	r7, #1134	; 0x46e
    2cb8:	0000076b 	andeq	r0, r0, fp, ror #14
    2cbc:	3817d103 	ldmdacc	r7, {r0, r1, r8, ip, lr, pc}
    2cc0:	04000000 	streq	r0, [r0], #-0
    2cc4:	00460704 	subeq	r0, r6, r4, lsl #14
    2cc8:	01040000 	mrseq	r0, (UNDEF: 4)
    2ccc:	00001d06 	andeq	r1, r0, r6, lsl #26
    2cd0:	05020400 	streq	r0, [r2, #-1024]	; 0xfffffc00
    2cd4:	0000006d 	andeq	r0, r0, sp, rrx
    2cd8:	58050404 	stmdapl	r5, {r2, sl}
    2cdc:	04000000 	streq	r0, [r0], #-0
    2ce0:	00530508 	subseq	r0, r3, r8, lsl #10
    2ce4:	01040000 	mrseq	r0, (UNDEF: 4)
    2ce8:	00001b08 	andeq	r1, r0, r8, lsl #22
    2cec:	005b0500 	subseq	r0, fp, r0, lsl #10
    2cf0:	02040000 	andeq	r0, r4, #0
    2cf4:	00002907 	andeq	r2, r0, r7, lsl #18
    2cf8:	07040400 	streq	r0, [r4, -r0, lsl #8]
    2cfc:	00000041 	andeq	r0, r0, r1, asr #32
    2d00:	3c070804 	stccc	8, cr0, [r7], {4}
    2d04:	06000000 	streq	r0, [r0], -r0
    2d08:	00000025 	andeq	r0, r0, r5, lsr #32
    2d0c:	0000008b 	andeq	r0, r0, fp, lsl #1
    2d10:	00002507 	andeq	r2, r0, r7, lsl #10
    2d14:	61080000 	mrsvs	r0, (UNDEF: 8)
    2d18:	02000000 	andeq	r0, r0, #0
    2d1c:	00970e1c 	addseq	r0, r7, ip, lsl lr
    2d20:	04090000 	streq	r0, [r9], #-0
    2d24:	0000007c 	andeq	r0, r0, ip, ror r0
    2d28:	00002506 	andeq	r2, r0, r6, lsl #10
    2d2c:	0000ac00 	andeq	sl, r0, r0, lsl #24
    2d30:	00ac0700 	adceq	r0, ip, r0, lsl #14
    2d34:	09000000 	stmdbeq	r0, {}	; <UNPREDICTABLE>
    2d38:	0000b904 	andeq	fp, r0, r4, lsl #18
    2d3c:	08010400 	stmdaeq	r1, {sl}
    2d40:	00000024 	andeq	r0, r0, r4, lsr #32
    2d44:	0000b205 	andeq	fp, r0, r5, lsl #4
    2d48:	03e60800 	mvneq	r0, #0, 16
    2d4c:	21020000 	mrscs	r0, (UNDEF: 2)
    2d50:	0000ca0e 	andeq	ip, r0, lr, lsl #20
    2d54:	9d040900 	vstrls.16	s0, [r4, #-0]	; <UNPREDICTABLE>
    2d58:	0a000000 	beq	2d60 <__code_start__-0x52a0>
    2d5c:	00000720 	andeq	r0, r0, r0, lsr #14
    2d60:	25050401 	strcs	r0, [r5, #-1025]	; 0xfffffbff
    2d64:	c4000000 	strgt	r0, [r0], #-0
    2d68:	2c00008f 	stccs	0, cr0, [r0], {143}	; 0x8f
    2d6c:	01000000 	mrseq	r0, (UNDEF: 0)
    2d70:	00014b9c 	muleq	r1, ip, fp
    2d74:	735f0b00 	cmpvc	pc, #0, 22
    2d78:	04010031 	streq	r0, [r1], #-49	; 0xffffffcf
    2d7c:	0000ac19 	andeq	sl, r0, r9, lsl ip
    2d80:	00101900 	andseq	r1, r0, r0, lsl #18
    2d84:	00101500 	andseq	r1, r0, r0, lsl #10
    2d88:	735f0b00 	cmpvc	pc, #0, 22
    2d8c:	04010032 	streq	r0, [r1], #-50	; 0xffffffce
    2d90:	0000ac2a 	andeq	sl, r0, sl, lsr #24
    2d94:	00103e00 	andseq	r3, r0, r0, lsl #28
    2d98:	00103a00 	andseq	r3, r0, r0, lsl #20
    2d9c:	006e0b00 	rsbeq	r0, lr, r0, lsl #22
    2da0:	2c360401 	cfldrscs	mvf0, [r6], #-4
    2da4:	65000000 	strvs	r0, [r0, #-0]
    2da8:	5f000010 	svcpl	0x00000010
    2dac:	0c000010 	stceq	0, cr0, [r0], {16}
    2db0:	01003173 	tsteq	r0, r3, ror r1
    2db4:	014b1a05 	cmpeq	fp, r5, lsl #20
    2db8:	10980000 	addsne	r0, r8, r0
    2dbc:	10900000 	addsne	r0, r0, r0
    2dc0:	730c0000 	movwvc	r0, #49152	; 0xc000
    2dc4:	05010032 	streq	r0, [r1, #-50]	; 0xffffffce
    2dc8:	00014b2c 	andeq	r4, r1, ip, lsr #22
    2dcc:	0010d400 	andseq	sp, r0, r0, lsl #8
    2dd0:	0010ce00 	andseq	ip, r0, r0, lsl #28
    2dd4:	04090000 	streq	r0, [r9], #-0
    2dd8:	00000062 	andeq	r0, r0, r2, rrx
	...

Disassembly of section .debug_abbrev:

00000000 <.debug_abbrev>:
       0:	25011101 	strcs	r1, [r1, #-257]	; 0xfffffeff
       4:	030b130e 	movweq	r1, #45838	; 0xb30e
       8:	110e1b0e 	tstne	lr, lr, lsl #22
       c:	10061201 	andne	r1, r6, r1, lsl #4
      10:	02000017 	andeq	r0, r0, #23
      14:	0b0b0024 	bleq	2c00ac <__bss_end__+0x2b6a44>
      18:	08030b3e 	stmdaeq	r3, {r1, r2, r3, r4, r5, r8, r9, fp}
      1c:	24030000 	strcs	r0, [r3], #-0
      20:	3e0b0b00 	vmlacc.f64	d0, d11, d0
      24:	000e030b 	andeq	r0, lr, fp, lsl #6
      28:	01150400 	tsteq	r5, r0, lsl #8
      2c:	13491927 	movtne	r1, #39207	; 0x9927
      30:	00001301 	andeq	r1, r0, r1, lsl #6
      34:	49000505 	stmdbmi	r0, {r0, r2, r8, sl}
      38:	06000013 			; <UNDEFINED> instruction: 0x06000013
      3c:	0e030034 	mcreq	0, 0, r0, cr3, cr4, {1}
      40:	0b3b0b3a 	bleq	ec2d30 <__bss_end__+0xeb96c8>
      44:	13490b39 	movtne	r0, #39737	; 0x9b39
      48:	193c193f 	ldmdbne	ip!, {r0, r1, r2, r3, r4, r5, r8, fp, ip}
      4c:	0f070000 	svceq	0x00070000
      50:	490b0b00 	stmdbmi	fp, {r8, r9, fp}
      54:	08000013 	stmdaeq	r0, {r0, r1, r4}
      58:	13490026 	movtne	r0, #36902	; 0x9026
      5c:	2e090000 	cdpcs	0, 0, cr0, cr9, cr0, {0}
      60:	03193f01 	tsteq	r9, #1, 30
      64:	3b0b3a0e 	blcc	2ce8a4 <__bss_end__+0x2c523c>
      68:	270b390b 	strcs	r3, [fp, -fp, lsl #18]
      6c:	12011119 	andne	r1, r1, #1073741830	; 0x40000006
      70:	97184006 	ldrls	r4, [r8, -r6]
      74:	13011942 	movwne	r1, #6466	; 0x1942
      78:	890a0000 	stmdbhi	sl, {}	; <UNPREDICTABLE>
      7c:	11000182 	smlabbne	r0, r2, r1, r0
      80:	00133101 	andseq	r3, r3, r1, lsl #2
      84:	002e0b00 	eoreq	r0, lr, r0, lsl #22
      88:	193c193f 	ldmdbne	ip!, {r0, r1, r2, r3, r4, r5, r8, fp, ip}
      8c:	0e030e6e 	cdpeq	14, 0, cr0, cr3, cr14, {3}
      90:	0b3b0b3a 	bleq	ec2d80 <__bss_end__+0xeb9718>
      94:	00000b39 	andeq	r0, r0, r9, lsr fp
      98:	01110100 	tsteq	r1, r0, lsl #2
      9c:	0b130e25 	bleq	4c3938 <__bss_end__+0x4ba2d0>
      a0:	0e1b0e03 	cdpeq	14, 1, cr0, cr11, cr3, {0}
      a4:	06120111 			; <UNDEFINED> instruction: 0x06120111
      a8:	00001710 	andeq	r1, r0, r0, lsl r7
      ac:	0b002402 	bleq	90bc <__code_end__+0xb4>
      b0:	030b3e0b 	movweq	r3, #48651	; 0xbe0b
      b4:	03000008 	movweq	r0, #8
      b8:	0b0b0024 	bleq	2c0150 <__bss_end__+0x2b6ae8>
      bc:	0e030b3e 	vmoveq.16	d3[0], r0
      c0:	16040000 	strne	r0, [r4], -r0
      c4:	3a0e0300 	bcc	380ccc <__bss_end__+0x377664>
      c8:	390b3b0b 	stmdbcc	fp, {r0, r1, r3, r8, r9, fp, ip, sp}
      cc:	0013490b 	andseq	r4, r3, fp, lsl #18
      d0:	01150500 	tsteq	r5, r0, lsl #10
      d4:	13491927 	movtne	r1, #39207	; 0x9927
      d8:	00001301 	andeq	r1, r0, r1, lsl #6
      dc:	49000506 	stmdbmi	r0, {r1, r2, r8, sl}
      e0:	07000013 	smladeq	r0, r3, r0, r0
      e4:	0e030034 	mcreq	0, 0, r0, cr3, cr4, {1}
      e8:	0b3b0b3a 	bleq	ec2dd8 <__bss_end__+0xeb9770>
      ec:	13490b39 	movtne	r0, #39737	; 0x9b39
      f0:	193c193f 	ldmdbne	ip!, {r0, r1, r2, r3, r4, r5, r8, fp, ip}
      f4:	0f080000 	svceq	0x00080000
      f8:	490b0b00 	stmdbmi	fp, {r8, r9, fp}
      fc:	09000013 	stmdbeq	r0, {r0, r1, r4}
     100:	13490026 	movtne	r0, #36902	; 0x9026
     104:	2e0a0000 	cdpcs	0, 0, cr0, cr10, cr0, {0}
     108:	3a0e0301 	bcc	380d14 <__bss_end__+0x3776ac>
     10c:	390b3b0b 	stmdbcc	fp, {r0, r1, r3, r8, r9, fp, ip, sp}
     110:	1119270b 	tstne	r9, fp, lsl #14
     114:	40061201 	andmi	r1, r6, r1, lsl #4
     118:	19429718 	stmdbne	r2, {r3, r4, r8, r9, sl, ip, pc}^
     11c:	00001301 	andeq	r1, r0, r1, lsl #6
     120:	0182890b 	orreq	r8, r2, fp, lsl #18
     124:	31011101 	tstcc	r1, r1, lsl #2
     128:	00130113 	andseq	r0, r3, r3, lsl r1
     12c:	828a0c00 	addhi	r0, sl, #0, 24
     130:	18020001 	stmdane	r2, {r0}
     134:	00184291 	mulseq	r8, r1, r2
     138:	82890d00 	addhi	r0, r9, #0, 26
     13c:	01110101 	tsteq	r1, r1, lsl #2
     140:	00001331 	andeq	r1, r0, r1, lsr r3
     144:	0300050e 	movweq	r0, #1294	; 0x50e
     148:	3b0b3a08 	blcc	2ce970 <__bss_end__+0x2c5308>
     14c:	490b390b 	stmdbmi	fp, {r0, r1, r3, r8, fp, ip, sp}
     150:	b7170213 			; <UNDEFINED> instruction: 0xb7170213
     154:	00001742 	andeq	r1, r0, r2, asr #14
     158:	11010b0f 	tstne	r1, pc, lsl #22
     15c:	00061201 	andeq	r1, r6, r1, lsl #4
     160:	00341000 	eorseq	r1, r4, r0
     164:	0b3a0803 	bleq	e82178 <__bss_end__+0xe78b10>
     168:	0b390b3b 	bleq	e42e5c <__bss_end__+0xe397f4>
     16c:	17021349 	strne	r1, [r2, -r9, asr #6]
     170:	001742b7 			; <UNDEFINED> instruction: 0x001742b7
     174:	82891100 	addhi	r1, r9, #0, 2
     178:	01110001 	tsteq	r1, r1
     17c:	00001331 	andeq	r1, r0, r1, lsr r3
     180:	3f012e12 	svccc	0x00012e12
     184:	3a0e0319 	bcc	380df0 <__bss_end__+0x377788>
     188:	390b3b0b 	stmdbcc	fp, {r0, r1, r3, r8, r9, fp, ip, sp}
     18c:	4919270b 	ldmdbmi	r9, {r0, r1, r3, r8, r9, sl, sp}
     190:	12011113 	andne	r1, r1, #-1073741820	; 0xc0000004
     194:	97184006 	ldrls	r4, [r8, -r6]
     198:	13011942 	movwne	r1, #6466	; 0x1942
     19c:	05130000 	ldreq	r0, [r3, #-0]
     1a0:	3a0e0300 	bcc	380da8 <__bss_end__+0x377740>
     1a4:	390b3b0b 	stmdbcc	fp, {r0, r1, r3, r8, r9, fp, ip, sp}
     1a8:	0213490b 	andseq	r4, r3, #180224	; 0x2c000
     1ac:	1742b717 	smlaldne	fp, r2, r7, r7
     1b0:	34140000 	ldrcc	r0, [r4], #-0
     1b4:	3a0e0300 	bcc	380dbc <__bss_end__+0x377754>
     1b8:	390b3b0b 	stmdbcc	fp, {r0, r1, r3, r8, r9, fp, ip, sp}
     1bc:	0213490b 	andseq	r4, r3, #180224	; 0x2c000
     1c0:	1742b717 	smlaldne	fp, r2, r7, r7
     1c4:	0b150000 	bleq	5401cc <__bss_end__+0x536b64>
     1c8:	01175501 	tsteq	r7, r1, lsl #10
     1cc:	16000013 			; <UNDEFINED> instruction: 0x16000013
     1d0:	193f012e 	ldmdbne	pc!, {r1, r2, r3, r5, r8}	; <UNPREDICTABLE>
     1d4:	0b3a0e03 	bleq	e839e8 <__bss_end__+0xe7a380>
     1d8:	0b390b3b 	bleq	e42ecc <__bss_end__+0xe39864>
     1dc:	01111927 	tsteq	r1, r7, lsr #18
     1e0:	18400612 	stmdane	r0, {r1, r4, r9, sl}^
     1e4:	01194297 			; <UNDEFINED> instruction: 0x01194297
     1e8:	17000013 	smladne	r0, r3, r0, r0
     1ec:	0111010b 	tsteq	r1, fp, lsl #2
     1f0:	13010612 	movwne	r0, #5650	; 0x1612
     1f4:	1d180000 	ldcne	0, cr0, [r8, #-0]
     1f8:	52133101 	andspl	r3, r3, #1073741824	; 0x40000000
     1fc:	0b42b801 	bleq	10ae208 <__bss_end__+0x10a4ba0>
     200:	06120111 			; <UNDEFINED> instruction: 0x06120111
     204:	0b590b58 	bleq	1642f6c <__bss_end__+0x1639904>
     208:	13010b57 	movwne	r0, #6999	; 0x1b57
     20c:	05190000 	ldreq	r0, [r9, #-0]
     210:	02133100 	andseq	r3, r3, #0, 2
     214:	1742b717 	smlaldne	fp, r2, r7, r7
     218:	341a0000 	ldrcc	r0, [sl], #-0
     21c:	490e0300 	stmdbmi	lr, {r8, r9}
     220:	02193413 	andseq	r3, r9, #318767104	; 0x13000000
     224:	1b000018 	blne	28c <__code_start__-0x7d74>
     228:	13490101 	movtne	r0, #37121	; 0x9101
     22c:	00001301 	andeq	r1, r0, r1, lsl #6
     230:	4900211c 	stmdbmi	r0, {r2, r3, r4, r8, sp}
     234:	000b2f13 	andeq	r2, fp, r3, lsl pc
     238:	012e1d00 			; <UNDEFINED> instruction: 0x012e1d00
     23c:	0b3a0e03 	bleq	e83a50 <__bss_end__+0xe7a3e8>
     240:	0b390b3b 	bleq	e42f34 <__bss_end__+0xe398cc>
     244:	13491927 	movtne	r1, #39207	; 0x9927
     248:	13010b20 	movwne	r0, #6944	; 0x1b20
     24c:	051e0000 	ldreq	r0, [lr, #-0]
     250:	3a080300 	bcc	200e58 <__bss_end__+0x1f77f0>
     254:	390b3b0b 	stmdbcc	fp, {r0, r1, r3, r8, r9, fp, ip, sp}
     258:	0013490b 	andseq	r4, r3, fp, lsl #18
     25c:	00341f00 	eorseq	r1, r4, r0, lsl #30
     260:	13490e03 	movtne	r0, #40451	; 0x9e03
     264:	0e1c1934 			; <UNDEFINED> instruction: 0x0e1c1934
     268:	2e200000 	cdpcs	0, 2, cr0, cr0, cr0, {0}
     26c:	3c193f00 	ldccc	15, cr3, [r9], {-0}
     270:	030e6e19 	movweq	r6, #60953	; 0xee19
     274:	3b0b3a0e 	blcc	2ceab4 <__bss_end__+0x2c544c>
     278:	000b390b 	andeq	r3, fp, fp, lsl #18
     27c:	11010000 	mrsne	r0, (UNDEF: 1)
     280:	130e2501 	movwne	r2, #58625	; 0xe501
     284:	1b0e030b 	blne	380eb8 <__bss_end__+0x377850>
     288:	1201110e 	andne	r1, r1, #-2147483645	; 0x80000003
     28c:	00171006 	andseq	r1, r7, r6
     290:	00240200 	eoreq	r0, r4, r0, lsl #4
     294:	0b3e0b0b 	bleq	f82ec8 <__bss_end__+0xf79860>
     298:	00000803 	andeq	r0, r0, r3, lsl #16
     29c:	0b002403 	bleq	92b0 <buf.3940+0x48>
     2a0:	030b3e0b 	movweq	r3, #48651	; 0xbe0b
     2a4:	0400000e 	streq	r0, [r0], #-14
     2a8:	13490026 	movtne	r0, #36902	; 0x9026
     2ac:	16050000 	strne	r0, [r5], -r0
     2b0:	3a0e0300 	bcc	380eb8 <__bss_end__+0x377850>
     2b4:	390b3b0b 	stmdbcc	fp, {r0, r1, r3, r8, r9, fp, ip, sp}
     2b8:	0013490b 	andseq	r4, r3, fp, lsl #18
     2bc:	01150600 	tsteq	r5, r0, lsl #12
     2c0:	13491927 	movtne	r1, #39207	; 0x9927
     2c4:	00001301 	andeq	r1, r0, r1, lsl #6
     2c8:	49000507 	stmdbmi	r0, {r0, r1, r2, r8, sl}
     2cc:	08000013 	stmdaeq	r0, {r0, r1, r4}
     2d0:	0e030034 	mcreq	0, 0, r0, cr3, cr4, {1}
     2d4:	0b3b0b3a 	bleq	ec2fc4 <__bss_end__+0xeb995c>
     2d8:	13490b39 	movtne	r0, #39737	; 0x9b39
     2dc:	193c193f 	ldmdbne	ip!, {r0, r1, r2, r3, r4, r5, r8, fp, ip}
     2e0:	0f090000 	svceq	0x00090000
     2e4:	490b0b00 	stmdbmi	fp, {r8, r9, fp}
     2e8:	0a000013 	beq	33c <__code_start__-0x7cc4>
     2ec:	0b3e0104 	bleq	f80704 <__bss_end__+0xf7709c>
     2f0:	13490b0b 	movtne	r0, #39691	; 0x9b0b
     2f4:	0b3b0b3a 	bleq	ec2fe4 <__bss_end__+0xeb997c>
     2f8:	13010b39 	movwne	r0, #6969	; 0x1b39
     2fc:	280b0000 	stmdacs	fp, {}	; <UNPREDICTABLE>
     300:	1c0e0300 	stcne	3, cr0, [lr], {-0}
     304:	0c00000b 	stceq	0, cr0, [r0], {11}
     308:	0e030034 	mcreq	0, 0, r0, cr3, cr4, {1}
     30c:	0b3b0b3a 	bleq	ec2ffc <__bss_end__+0xeb9994>
     310:	13490b39 	movtne	r0, #39737	; 0x9b39
     314:	0000061c 	andeq	r0, r0, ip, lsl r6
     318:	3f012e0d 	svccc	0x00012e0d
     31c:	3a0e0319 	bcc	380f88 <__bss_end__+0x377920>
     320:	390b3b0b 	stmdbcc	fp, {r0, r1, r3, r8, r9, fp, ip, sp}
     324:	4919270b 	ldmdbmi	r9, {r0, r1, r3, r8, r9, sl, sp}
     328:	12011113 	andne	r1, r1, #-1073741820	; 0xc0000004
     32c:	97184006 	ldrls	r4, [r8, -r6]
     330:	13011942 	movwne	r1, #6466	; 0x1942
     334:	050e0000 	streq	r0, [lr, #-0]
     338:	3a080300 	bcc	200f40 <__bss_end__+0x1f78d8>
     33c:	390b3b0b 	stmdbcc	fp, {r0, r1, r3, r8, r9, fp, ip, sp}
     340:	0213490b 	andseq	r4, r3, #180224	; 0x2c000
     344:	1742b717 	smlaldne	fp, r2, r7, r7
     348:	340f0000 	strcc	r0, [pc], #-0	; 350 <__code_start__-0x7cb0>
     34c:	3a080300 	bcc	200f54 <__bss_end__+0x1f78ec>
     350:	390b3b0b 	stmdbcc	fp, {r0, r1, r3, r8, r9, fp, ip, sp}
     354:	0213490b 	andseq	r4, r3, #180224	; 0x2c000
     358:	1742b717 	smlaldne	fp, r2, r7, r7
     35c:	89100000 	ldmdbhi	r0, {}	; <UNPREDICTABLE>
     360:	11010182 	smlabbne	r1, r2, r1, r0
     364:	01133101 	tsteq	r3, r1, lsl #2
     368:	11000013 	tstne	r0, r3, lsl r0
     36c:	0001828a 	andeq	r8, r1, sl, lsl #5
     370:	42911802 	addsmi	r1, r1, #131072	; 0x20000
     374:	12000018 	andne	r0, r0, #24
     378:	01018289 	smlabbeq	r1, r9, r2, r8
     37c:	13310111 	teqne	r1, #1073741828	; 0x40000004
     380:	2e130000 	cdpcs	0, 1, cr0, cr3, cr0, {0}
     384:	03193f01 	tsteq	r9, #1, 30
     388:	3b0b3a0e 	blcc	2cebc8 <__bss_end__+0x2c5560>
     38c:	270b390b 	strcs	r3, [fp, -fp, lsl #18]
     390:	12011119 	andne	r1, r1, #1073741830	; 0x40000006
     394:	97184006 	ldrls	r4, [r8, -r6]
     398:	13011942 	movwne	r1, #6466	; 0x1942
     39c:	89140000 	ldmdbhi	r4, {}	; <UNPREDICTABLE>
     3a0:	11000182 	smlabbne	r0, r2, r1, r0
     3a4:	00133101 	andseq	r3, r3, r1, lsl #2
     3a8:	00051500 	andeq	r1, r5, r0, lsl #10
     3ac:	0b3a0e03 	bleq	e83bc0 <__bss_end__+0xe7a558>
     3b0:	0b390b3b 	bleq	e430a4 <__bss_end__+0xe39a3c>
     3b4:	17021349 	strne	r1, [r2, -r9, asr #6]
     3b8:	001742b7 			; <UNDEFINED> instruction: 0x001742b7
     3bc:	00341600 	eorseq	r1, r4, r0, lsl #12
     3c0:	0b3a0e03 	bleq	e83bd4 <__bss_end__+0xe7a56c>
     3c4:	0b390b3b 	bleq	e430b8 <__bss_end__+0xe39a50>
     3c8:	17021349 	strne	r1, [r2, -r9, asr #6]
     3cc:	001742b7 			; <UNDEFINED> instruction: 0x001742b7
     3d0:	012e1700 			; <UNDEFINED> instruction: 0x012e1700
     3d4:	0b3a0e03 	bleq	e83be8 <__bss_end__+0xe7a580>
     3d8:	0b390b3b 	bleq	e430cc <__bss_end__+0xe39a64>
     3dc:	13491927 	movtne	r1, #39207	; 0x9927
     3e0:	13010b20 	movwne	r0, #6944	; 0x1b20
     3e4:	05180000 	ldreq	r0, [r8, #-0]
     3e8:	3a080300 	bcc	200ff0 <__bss_end__+0x1f7988>
     3ec:	390b3b0b 	stmdbcc	fp, {r0, r1, r3, r8, r9, fp, ip, sp}
     3f0:	0013490b 	andseq	r4, r3, fp, lsl #18
     3f4:	002e1900 	eoreq	r1, lr, r0, lsl #18
     3f8:	193c193f 	ldmdbne	ip!, {r0, r1, r2, r3, r4, r5, r8, fp, ip}
     3fc:	0e030e6e 	cdpeq	14, 0, cr0, cr3, cr14, {3}
     400:	0b3b0b3a 	bleq	ec30f0 <__bss_end__+0xeb9a88>
     404:	00000b39 	andeq	r0, r0, r9, lsr fp
     408:	01110100 	tsteq	r1, r0, lsl #2
     40c:	0b130e25 	bleq	4c3ca8 <__bss_end__+0x4ba640>
     410:	0e1b0e03 	cdpeq	14, 1, cr0, cr11, cr3, {0}
     414:	06120111 			; <UNDEFINED> instruction: 0x06120111
     418:	00001710 	andeq	r1, r0, r0, lsl r7
     41c:	03001602 	movweq	r1, #1538	; 0x602
     420:	3b0b3a0e 	blcc	2cec60 <__bss_end__+0x2c55f8>
     424:	490b390b 	stmdbmi	fp, {r0, r1, r3, r8, fp, ip, sp}
     428:	03000013 	movweq	r0, #19
     42c:	0e030113 	mcreq	1, 0, r0, cr3, cr3, {0}
     430:	0b3a0b0b 	bleq	e83064 <__bss_end__+0xe799fc>
     434:	13010b3b 	movwne	r0, #6971	; 0x1b3b
     438:	0d040000 	stceq	0, cr0, [r4, #-0]
     43c:	490e0300 	stmdbmi	lr, {r8, r9}
     440:	340b3813 	strcc	r3, [fp], #-2067	; 0xfffff7ed
     444:	05000019 	streq	r0, [r0, #-25]	; 0xffffffe7
     448:	0b0b000f 	bleq	2c048c <__bss_end__+0x2b6e24>
     44c:	24060000 	strcs	r0, [r6], #-0
     450:	3e0b0b00 	vmlacc.f64	d0, d11, d0
     454:	0008030b 	andeq	r0, r8, fp, lsl #6
     458:	00240700 	eoreq	r0, r4, r0, lsl #14
     45c:	0b3e0b0b 	bleq	f83090 <__bss_end__+0xf79a28>
     460:	00000e03 	andeq	r0, r0, r3, lsl #28
     464:	27011508 	strcs	r1, [r1, -r8, lsl #10]
     468:	01134919 	tsteq	r3, r9, lsl r9
     46c:	09000013 	stmdbeq	r0, {r0, r1, r4}
     470:	13490005 	movtne	r0, #36869	; 0x9005
     474:	340a0000 	strcc	r0, [sl], #-0
     478:	3a0e0300 	bcc	381080 <__bss_end__+0x377a18>
     47c:	390b3b0b 	stmdbcc	fp, {r0, r1, r3, r8, r9, fp, ip, sp}
     480:	3f13490b 	svccc	0x0013490b
     484:	00193c19 	andseq	r3, r9, r9, lsl ip
     488:	000f0b00 	andeq	r0, pc, r0, lsl #22
     48c:	13490b0b 	movtne	r0, #39691	; 0x9b0b
     490:	260c0000 	strcs	r0, [ip], -r0
     494:	00134900 	andseq	r4, r3, r0, lsl #18
     498:	012e0d00 			; <UNDEFINED> instruction: 0x012e0d00
     49c:	0e03193f 			; <UNDEFINED> instruction: 0x0e03193f
     4a0:	0b3b0b3a 	bleq	ec3190 <__bss_end__+0xeb9b28>
     4a4:	19270b39 	stmdbne	r7!, {r0, r3, r4, r5, r8, r9, fp}
     4a8:	01111349 	tsteq	r1, r9, asr #6
     4ac:	18400612 	stmdane	r0, {r1, r4, r9, sl}^
     4b0:	01194297 			; <UNDEFINED> instruction: 0x01194297
     4b4:	0e000013 	mcreq	0, 0, r0, cr0, cr3, {0}
     4b8:	08030005 	stmdaeq	r3, {r0, r2}
     4bc:	0b3b0b3a 	bleq	ec31ac <__bss_end__+0xeb9b44>
     4c0:	13490b39 	movtne	r0, #39737	; 0x9b39
     4c4:	00001802 	andeq	r1, r0, r2, lsl #16
     4c8:	0000180f 	andeq	r1, r0, pc, lsl #16
     4cc:	00341000 	eorseq	r1, r4, r0
     4d0:	0b3a0803 	bleq	e824e4 <__bss_end__+0xe78e7c>
     4d4:	0b390b3b 	bleq	e431c8 <__bss_end__+0xe39b60>
     4d8:	18021349 	stmdane	r2, {r0, r3, r6, r8, r9, ip}
     4dc:	34110000 	ldrcc	r0, [r1], #-0
     4e0:	3a0e0300 	bcc	3810e8 <__bss_end__+0x377a80>
     4e4:	390b3b0b 	stmdbcc	fp, {r0, r1, r3, r8, r9, fp, ip, sp}
     4e8:	0213490b 	andseq	r4, r3, #180224	; 0x2c000
     4ec:	12000018 	andne	r0, r0, #24
     4f0:	08030034 	stmdaeq	r3, {r2, r4, r5}
     4f4:	0b3b0b3a 	bleq	ec31e4 <__bss_end__+0xeb9b7c>
     4f8:	13490b39 	movtne	r0, #39737	; 0x9b39
     4fc:	42b71702 	adcsmi	r1, r7, #524288	; 0x80000
     500:	13000017 	movwne	r0, #23
     504:	01018289 	smlabbeq	r1, r9, r2, r8
     508:	13310111 	teqne	r1, #1073741828	; 0x40000004
     50c:	00001301 	andeq	r1, r0, r1, lsl #6
     510:	01828a14 	orreq	r8, r2, r4, lsl sl
     514:	91180200 	tstls	r8, r0, lsl #4
     518:	00001842 	andeq	r1, r0, r2, asr #16
     51c:	01828915 	orreq	r8, r2, r5, lsl r9
     520:	00011101 	andeq	r1, r1, r1, lsl #2
     524:	01011600 	tsteq	r1, r0, lsl #12
     528:	13011349 	movwne	r1, #4937	; 0x1349
     52c:	21170000 	tstcs	r7, r0
     530:	2f134900 	svccs	0x00134900
     534:	18000005 	stmdane	r0, {r0, r2}
     538:	193f002e 	ldmdbne	pc!, {r1, r2, r3, r5}	; <UNPREDICTABLE>
     53c:	0e6e193c 			; <UNDEFINED> instruction: 0x0e6e193c
     540:	0b3a0e03 	bleq	e83d54 <__bss_end__+0xe7a6ec>
     544:	0b390b3b 	bleq	e43238 <__bss_end__+0xe39bd0>
     548:	01000000 	mrseq	r0, (UNDEF: 0)
     54c:	0e250111 	mcreq	1, 1, r0, cr5, cr1, {0}
     550:	0e030b13 	vmoveq.32	d3[0], r0
     554:	01110e1b 	tsteq	r1, fp, lsl lr
     558:	17100612 			; <UNDEFINED> instruction: 0x17100612
     55c:	24020000 	strcs	r0, [r2], #-0
     560:	3e0b0b00 	vmlacc.f64	d0, d11, d0
     564:	0008030b 	andeq	r0, r8, fp, lsl #6
     568:	00240300 	eoreq	r0, r4, r0, lsl #6
     56c:	0b3e0b0b 	bleq	f831a0 <__bss_end__+0xf79b38>
     570:	00000e03 	andeq	r0, r0, r3, lsl #28
     574:	27011504 	strcs	r1, [r1, -r4, lsl #10]
     578:	01134919 	tsteq	r3, r9, lsl r9
     57c:	05000013 	streq	r0, [r0, #-19]	; 0xffffffed
     580:	13490005 	movtne	r0, #36869	; 0x9005
     584:	34060000 	strcc	r0, [r6], #-0
     588:	3a0e0300 	bcc	381190 <__bss_end__+0x377b28>
     58c:	390b3b0b 	stmdbcc	fp, {r0, r1, r3, r8, r9, fp, ip, sp}
     590:	3f13490b 	svccc	0x0013490b
     594:	00193c19 	andseq	r3, r9, r9, lsl ip
     598:	000f0700 	andeq	r0, pc, r0, lsl #14
     59c:	13490b0b 	movtne	r0, #39691	; 0x9b0b
     5a0:	26080000 	strcs	r0, [r8], -r0
     5a4:	00134900 	andseq	r4, r3, r0, lsl #18
     5a8:	00340900 	eorseq	r0, r4, r0, lsl #18
     5ac:	0b3a1347 	bleq	e852d0 <__bss_end__+0xe7bc68>
     5b0:	0b390b3b 	bleq	e432a4 <__bss_end__+0xe39c3c>
     5b4:	00001802 	andeq	r1, r0, r2, lsl #16
     5b8:	3f012e0a 	svccc	0x00012e0a
     5bc:	3a0e0319 	bcc	381228 <__bss_end__+0x377bc0>
     5c0:	390b3b0b 	stmdbcc	fp, {r0, r1, r3, r8, r9, fp, ip, sp}
     5c4:	4919270b 	ldmdbmi	r9, {r0, r1, r3, r8, r9, sl, sp}
     5c8:	12011113 	andne	r1, r1, #-1073741820	; 0xc0000004
     5cc:	96184006 	ldrls	r4, [r8], -r6
     5d0:	00001942 	andeq	r1, r0, r2, asr #18
     5d4:	0300050b 	movweq	r0, #1291	; 0x50b
     5d8:	3b0b3a08 	blcc	2cee00 <__bss_end__+0x2c5798>
     5dc:	490b390b 	stmdbmi	fp, {r0, r1, r3, r8, fp, ip, sp}
     5e0:	b7170213 			; <UNDEFINED> instruction: 0xb7170213
     5e4:	00001742 	andeq	r1, r0, r2, asr #14
     5e8:	01110100 	tsteq	r1, r0, lsl #2
     5ec:	0b130e25 	bleq	4c3e88 <__bss_end__+0x4ba820>
     5f0:	0e1b0e03 	cdpeq	14, 1, cr0, cr11, cr3, {0}
     5f4:	06120111 			; <UNDEFINED> instruction: 0x06120111
     5f8:	00001710 	andeq	r1, r0, r0, lsl r7
     5fc:	0b002402 	bleq	960c <buf.3940+0x3a4>
     600:	030b3e0b 	movweq	r3, #48651	; 0xbe0b
     604:	03000008 	movweq	r0, #8
     608:	0b0b0024 	bleq	2c06a0 <__bss_end__+0x2b7038>
     60c:	0e030b3e 	vmoveq.16	d3[0], r0
     610:	15040000 	strne	r0, [r4, #-0]
     614:	49192701 	ldmdbmi	r9, {r0, r8, r9, sl, sp}
     618:	00130113 	andseq	r0, r3, r3, lsl r1
     61c:	00050500 	andeq	r0, r5, r0, lsl #10
     620:	00001349 	andeq	r1, r0, r9, asr #6
     624:	03003406 	movweq	r3, #1030	; 0x406
     628:	3b0b3a0e 	blcc	2cee68 <__bss_end__+0x2c5800>
     62c:	490b390b 	stmdbmi	fp, {r0, r1, r3, r8, fp, ip, sp}
     630:	3c193f13 	ldccc	15, cr3, [r9], {19}
     634:	07000019 	smladeq	r0, r9, r0, r0
     638:	0b0b000f 	bleq	2c067c <__bss_end__+0x2b7014>
     63c:	00001349 	andeq	r1, r0, r9, asr #6
     640:	49002608 	stmdbmi	r0, {r3, r9, sl, sp}
     644:	09000013 	stmdbeq	r0, {r0, r1, r4}
     648:	13470034 	movtne	r0, #28724	; 0x7034
     64c:	0b3b0b3a 	bleq	ec333c <__bss_end__+0xeb9cd4>
     650:	18020b39 	stmdane	r2, {r0, r3, r4, r5, r8, r9, fp}
     654:	2e0a0000 	cdpcs	0, 0, cr0, cr10, cr0, {0}
     658:	03193f01 	tsteq	r9, #1, 30
     65c:	3b0b3a0e 	blcc	2cee9c <__bss_end__+0x2c5834>
     660:	270b390b 	strcs	r3, [fp, -fp, lsl #18]
     664:	12011119 	andne	r1, r1, #1073741830	; 0x40000006
     668:	97184006 	ldrls	r4, [r8, -r6]
     66c:	13011942 	movwne	r1, #6466	; 0x1942
     670:	050b0000 	streq	r0, [fp, #-0]
     674:	3a080300 	bcc	20127c <__bss_end__+0x1f7c14>
     678:	390b3b0b 	stmdbcc	fp, {r0, r1, r3, r8, r9, fp, ip, sp}
     67c:	0213490b 	andseq	r4, r3, #180224	; 0x2c000
     680:	0c000018 	stceq	0, cr0, [r0], {24}
     684:	193f002e 	ldmdbne	pc!, {r1, r2, r3, r5}	; <UNPREDICTABLE>
     688:	0b3a0e03 	bleq	e83e9c <__bss_end__+0xe7a834>
     68c:	0b390b3b 	bleq	e43380 <__bss_end__+0xe39d18>
     690:	01111927 	tsteq	r1, r7, lsr #18
     694:	18400612 	stmdane	r0, {r1, r4, r9, sl}^
     698:	00194297 	mulseq	r9, r7, r2
     69c:	012e0d00 			; <UNDEFINED> instruction: 0x012e0d00
     6a0:	0b3a0e03 	bleq	e83eb4 <__bss_end__+0xe7a84c>
     6a4:	0b390b3b 	bleq	e43398 <__bss_end__+0xe39d30>
     6a8:	13491927 	movtne	r1, #39207	; 0x9927
     6ac:	06120111 			; <UNDEFINED> instruction: 0x06120111
     6b0:	42971840 	addsmi	r1, r7, #64, 16	; 0x400000
     6b4:	00130119 	andseq	r0, r3, r9, lsl r1
     6b8:	00050e00 	andeq	r0, r5, r0, lsl #28
     6bc:	0b3a0803 	bleq	e826d0 <__bss_end__+0xe79068>
     6c0:	0b390b3b 	bleq	e433b4 <__bss_end__+0xe39d4c>
     6c4:	17021349 	strne	r1, [r2, -r9, asr #6]
     6c8:	001742b7 			; <UNDEFINED> instruction: 0x001742b7
     6cc:	82890f00 	addhi	r0, r9, #0, 30
     6d0:	01110101 	tsteq	r1, r1, lsl #2
     6d4:	00001331 	andeq	r1, r0, r1, lsr r3
     6d8:	01828a10 	orreq	r8, r2, r0, lsl sl
     6dc:	91180200 	tstls	r8, r0, lsl #4
     6e0:	00001842 	andeq	r1, r0, r2, asr #16
     6e4:	3f002e11 	svccc	0x00002e11
     6e8:	6e193c19 	mrcvs	12, 0, r3, cr9, cr9, {0}
     6ec:	3a0e030e 	bcc	38132c <__bss_end__+0x377cc4>
     6f0:	390b3b0b 	stmdbcc	fp, {r0, r1, r3, r8, r9, fp, ip, sp}
     6f4:	0000000b 	andeq	r0, r0, fp
     6f8:	25011101 	strcs	r1, [r1, #-257]	; 0xfffffeff
     6fc:	030b130e 	movweq	r1, #45838	; 0xb30e
     700:	110e1b0e 	tstne	lr, lr, lsl #22
     704:	10061201 	andne	r1, r6, r1, lsl #4
     708:	02000017 	andeq	r0, r0, #23
     70c:	0b0b0024 	bleq	2c07a4 <__bss_end__+0x2b713c>
     710:	08030b3e 	stmdaeq	r3, {r1, r2, r3, r4, r5, r8, r9, fp}
     714:	24030000 	strcs	r0, [r3], #-0
     718:	3e0b0b00 	vmlacc.f64	d0, d11, d0
     71c:	000e030b 	andeq	r0, lr, fp, lsl #6
     720:	01150400 	tsteq	r5, r0, lsl #8
     724:	13491927 	movtne	r1, #39207	; 0x9927
     728:	00001301 	andeq	r1, r0, r1, lsl #6
     72c:	49000505 	stmdbmi	r0, {r0, r2, r8, sl}
     730:	06000013 			; <UNDEFINED> instruction: 0x06000013
     734:	0e030034 	mcreq	0, 0, r0, cr3, cr4, {1}
     738:	0b3b0b3a 	bleq	ec3428 <__bss_end__+0xeb9dc0>
     73c:	13490b39 	movtne	r0, #39737	; 0x9b39
     740:	193c193f 	ldmdbne	ip!, {r0, r1, r2, r3, r4, r5, r8, fp, ip}
     744:	0f070000 	svceq	0x00070000
     748:	490b0b00 	stmdbmi	fp, {r8, r9, fp}
     74c:	08000013 	stmdaeq	r0, {r0, r1, r4}
     750:	13490026 	movtne	r0, #36902	; 0x9026
     754:	2e090000 	cdpcs	0, 0, cr0, cr9, cr0, {0}
     758:	03193f01 	tsteq	r9, #1, 30
     75c:	3b0b3a0e 	blcc	2cef9c <__bss_end__+0x2c5934>
     760:	270b390b 	strcs	r3, [fp, -fp, lsl #18]
     764:	19018719 	stmdbne	r1, {r0, r3, r4, r8, r9, sl, pc}
     768:	06120111 			; <UNDEFINED> instruction: 0x06120111
     76c:	42971840 	addsmi	r1, r7, #64, 16	; 0x400000
     770:	00130119 	andseq	r0, r3, r9, lsl r1
     774:	82890a00 	addhi	r0, r9, #0, 20
     778:	01110101 	tsteq	r1, r1, lsl #2
     77c:	00001301 	andeq	r1, r0, r1, lsl #6
     780:	01828a0b 	orreq	r8, r2, fp, lsl #20
     784:	91180200 	tstls	r8, r0, lsl #4
     788:	00001842 	andeq	r1, r0, r2, asr #16
     78c:	0182890c 	orreq	r8, r2, ip, lsl #18
     790:	31011100 	mrscc	r1, (UNDEF: 17)
     794:	0d000013 	stceq	0, cr0, [r0, #-76]	; 0xffffffb4
     798:	01018289 	smlabbeq	r1, r9, r2, r8
     79c:	13310111 	teqne	r1, #1073741828	; 0x40000004
     7a0:	00001301 	andeq	r1, r0, r1, lsl #6
     7a4:	3f002e0e 	svccc	0x00002e0e
     7a8:	6e193c19 	mrcvs	12, 0, r3, cr9, cr9, {0}
     7ac:	3a0e030e 	bcc	3813ec <__bss_end__+0x377d84>
     7b0:	390b3b0b 	stmdbcc	fp, {r0, r1, r3, r8, r9, fp, ip, sp}
     7b4:	0000000b 	andeq	r0, r0, fp
     7b8:	25011101 	strcs	r1, [r1, #-257]	; 0xfffffeff
     7bc:	030b130e 	movweq	r1, #45838	; 0xb30e
     7c0:	110e1b0e 	tstne	lr, lr, lsl #22
     7c4:	10061201 	andne	r1, r6, r1, lsl #4
     7c8:	02000017 	andeq	r0, r0, #23
     7cc:	0b0b0024 	bleq	2c0864 <__bss_end__+0x2b71fc>
     7d0:	08030b3e 	stmdaeq	r3, {r1, r2, r3, r4, r5, r8, r9, fp}
     7d4:	24030000 	strcs	r0, [r3], #-0
     7d8:	3e0b0b00 	vmlacc.f64	d0, d11, d0
     7dc:	000e030b 	andeq	r0, lr, fp, lsl #6
     7e0:	01150400 	tsteq	r5, r0, lsl #8
     7e4:	13491927 	movtne	r1, #39207	; 0x9927
     7e8:	00001301 	andeq	r1, r0, r1, lsl #6
     7ec:	49000505 	stmdbmi	r0, {r0, r2, r8, sl}
     7f0:	06000013 			; <UNDEFINED> instruction: 0x06000013
     7f4:	0e030034 	mcreq	0, 0, r0, cr3, cr4, {1}
     7f8:	0b3b0b3a 	bleq	ec34e8 <__bss_end__+0xeb9e80>
     7fc:	13490b39 	movtne	r0, #39737	; 0x9b39
     800:	193c193f 	ldmdbne	ip!, {r0, r1, r2, r3, r4, r5, r8, fp, ip}
     804:	0f070000 	svceq	0x00070000
     808:	490b0b00 	stmdbmi	fp, {r8, r9, fp}
     80c:	08000013 	stmdaeq	r0, {r0, r1, r4}
     810:	13490026 	movtne	r0, #36902	; 0x9026
     814:	2e090000 	cdpcs	0, 0, cr0, cr9, cr0, {0}
     818:	03193f01 	tsteq	r9, #1, 30
     81c:	3b0b3a0e 	blcc	2cf05c <__bss_end__+0x2c59f4>
     820:	110b390b 	tstne	fp, fp, lsl #18
     824:	40061201 	andmi	r1, r6, r1, lsl #4
     828:	19429718 	stmdbne	r2, {r3, r4, r8, r9, sl, ip, pc}^
     82c:	00001301 	andeq	r1, r0, r1, lsl #6
     830:	3f002e0a 	svccc	0x00002e0a
     834:	3a0e0319 	bcc	3814a0 <__bss_end__+0x377e38>
     838:	390b3b0b 	stmdbcc	fp, {r0, r1, r3, r8, r9, fp, ip, sp}
     83c:	3c19270b 	ldccc	7, cr2, [r9], {11}
     840:	0b000019 	bleq	8ac <__code_start__-0x7754>
     844:	08030034 	stmdaeq	r3, {r2, r4, r5}
     848:	0b3b0b3a 	bleq	ec3538 <__bss_end__+0xeb9ed0>
     84c:	13490b39 	movtne	r0, #39737	; 0x9b39
     850:	42b71702 	adcsmi	r1, r7, #524288	; 0x80000
     854:	0c000017 	stceq	0, cr0, [r0], {23}
     858:	0e030034 	mcreq	0, 0, r0, cr3, cr4, {1}
     85c:	0b3b0b3a 	bleq	ec354c <__bss_end__+0xeb9ee4>
     860:	13490b39 	movtne	r0, #39737	; 0x9b39
     864:	0b0d0000 	bleq	34086c <__bss_end__+0x337204>
     868:	12011101 	andne	r1, r1, #1073741824	; 0x40000000
     86c:	00130106 	andseq	r0, r3, r6, lsl #2
     870:	00340e00 	eorseq	r0, r4, r0, lsl #28
     874:	0b3a0803 	bleq	e82888 <__bss_end__+0xe79220>
     878:	0b390b3b 	bleq	e4356c <__bss_end__+0xe39f04>
     87c:	0b1c1349 	bleq	7055a8 <__bss_end__+0x6fbf40>
     880:	890f0000 	stmdbhi	pc, {}	; <UNPREDICTABLE>
     884:	11000182 	smlabbne	r0, r2, r1, r0
     888:	00133101 	andseq	r3, r3, r1, lsl #2
     88c:	002e1000 	eoreq	r1, lr, r0
     890:	193c193f 	ldmdbne	ip!, {r0, r1, r2, r3, r4, r5, r8, fp, ip}
     894:	0e030e6e 	cdpeq	14, 0, cr0, cr3, cr14, {3}
     898:	053b0b3a 	ldreq	r0, [fp, #-2874]!	; 0xfffff4c6
     89c:	00000b39 	andeq	r0, r0, r9, lsr fp
     8a0:	3f002e11 	svccc	0x00002e11
     8a4:	6e193c19 	mrcvs	12, 0, r3, cr9, cr9, {0}
     8a8:	3a0e030e 	bcc	3814e8 <__bss_end__+0x377e80>
     8ac:	390b3b0b 	stmdbcc	fp, {r0, r1, r3, r8, r9, fp, ip, sp}
     8b0:	0000000b 	andeq	r0, r0, fp
     8b4:	25011101 	strcs	r1, [r1, #-257]	; 0xfffffeff
     8b8:	030b130e 	movweq	r1, #45838	; 0xb30e
     8bc:	550e1b0e 	strpl	r1, [lr, #-2830]	; 0xfffff4f2
     8c0:	10011117 	andne	r1, r1, r7, lsl r1
     8c4:	02000017 	andeq	r0, r0, #23
     8c8:	0b0b0024 	bleq	2c0960 <__bss_end__+0x2b72f8>
     8cc:	08030b3e 	stmdaeq	r3, {r1, r2, r3, r4, r5, r8, r9, fp}
     8d0:	26030000 	strcs	r0, [r3], -r0
     8d4:	00134900 	andseq	r4, r3, r0, lsl #18
     8d8:	00240400 	eoreq	r0, r4, r0, lsl #8
     8dc:	0b3e0b0b 	bleq	f83510 <__bss_end__+0xf79ea8>
     8e0:	00000e03 	andeq	r0, r0, r3, lsl #28
     8e4:	27011505 	strcs	r1, [r1, -r5, lsl #10]
     8e8:	01134919 	tsteq	r3, r9, lsl r9
     8ec:	06000013 			; <UNDEFINED> instruction: 0x06000013
     8f0:	13490005 	movtne	r0, #36869	; 0x9005
     8f4:	34070000 	strcc	r0, [r7], #-0
     8f8:	3a0e0300 	bcc	381500 <__bss_end__+0x377e98>
     8fc:	390b3b0b 	stmdbcc	fp, {r0, r1, r3, r8, r9, fp, ip, sp}
     900:	3f13490b 	svccc	0x0013490b
     904:	00193c19 	andseq	r3, r9, r9, lsl ip
     908:	000f0800 	andeq	r0, pc, r0, lsl #16
     90c:	13490b0b 	movtne	r0, #39691	; 0x9b0b
     910:	34090000 	strcc	r0, [r9], #-0
     914:	3a0e0300 	bcc	38151c <__bss_end__+0x377eb4>
     918:	390b3b0b 	stmdbcc	fp, {r0, r1, r3, r8, r9, fp, ip, sp}
     91c:	0013490b 	andseq	r4, r3, fp, lsl #18
     920:	012e0a00 			; <UNDEFINED> instruction: 0x012e0a00
     924:	0e03193f 			; <UNDEFINED> instruction: 0x0e03193f
     928:	0b3b0b3a 	bleq	ec3618 <__bss_end__+0xeb9fb0>
     92c:	19270b39 	stmdbne	r7!, {r0, r3, r4, r5, r8, r9, fp}
     930:	11190187 	tstne	r9, r7, lsl #3
     934:	40061201 	andmi	r1, r6, r1, lsl #4
     938:	19429718 	stmdbne	r2, {r3, r4, r8, r9, sl, ip, pc}^
     93c:	00001301 	andeq	r1, r0, r1, lsl #6
     940:	0300340b 	movweq	r3, #1035	; 0x40b
     944:	3b0b3a0e 	blcc	2cf184 <__bss_end__+0x2c5b1c>
     948:	490b390b 	stmdbmi	fp, {r0, r1, r3, r8, fp, ip, sp}
     94c:	b7170213 			; <UNDEFINED> instruction: 0xb7170213
     950:	00001742 	andeq	r1, r0, r2, asr #14
     954:	0182890c 	orreq	r8, r2, ip, lsl #18
     958:	31011100 	mrscc	r1, (UNDEF: 17)
     95c:	0d000013 	stceq	0, cr0, [r0, #-76]	; 0xffffffb4
     960:	01018289 	smlabbeq	r1, r9, r2, r8
     964:	13310111 	teqne	r1, #1073741828	; 0x40000004
     968:	00001301 	andeq	r1, r0, r1, lsl #6
     96c:	01828a0e 	orreq	r8, r2, lr, lsl #20
     970:	91180200 	tstls	r8, r0, lsl #4
     974:	00001842 	andeq	r1, r0, r2, asr #16
     978:	3f012e0f 	svccc	0x00012e0f
     97c:	3a0e0319 	bcc	3815e8 <__bss_end__+0x377f80>
     980:	390b3b0b 	stmdbcc	fp, {r0, r1, r3, r8, r9, fp, ip, sp}
     984:	1119270b 	tstne	r9, fp, lsl #14
     988:	40061201 	andmi	r1, r6, r1, lsl #4
     98c:	19429718 	stmdbne	r2, {r3, r4, r8, r9, sl, ip, pc}^
     990:	00001301 	andeq	r1, r0, r1, lsl #6
     994:	3f012e10 	svccc	0x00012e10
     998:	3a0e0319 	bcc	381604 <__bss_end__+0x377f9c>
     99c:	390b3b0b 	stmdbcc	fp, {r0, r1, r3, r8, r9, fp, ip, sp}
     9a0:	4919270b 	ldmdbmi	r9, {r0, r1, r3, r8, r9, sl, sp}
     9a4:	12011113 	andne	r1, r1, #-1073741820	; 0xc0000004
     9a8:	97184006 	ldrls	r4, [r8, -r6]
     9ac:	13011942 	movwne	r1, #6466	; 0x1942
     9b0:	2e110000 	cdpcs	0, 1, cr0, cr1, cr0, {0}
     9b4:	3c193f00 	ldccc	15, cr3, [r9], {-0}
     9b8:	030e6e19 	movweq	r6, #60953	; 0xee19
     9bc:	3b0b3a0e 	blcc	2cf1fc <__bss_end__+0x2c5b94>
     9c0:	000b3905 	andeq	r3, fp, r5, lsl #18
     9c4:	002e1200 	eoreq	r1, lr, r0, lsl #4
     9c8:	193c193f 	ldmdbne	ip!, {r0, r1, r2, r3, r4, r5, r8, fp, ip}
     9cc:	0e030e6e 	cdpeq	14, 0, cr0, cr3, cr14, {3}
     9d0:	0b3b0b3a 	bleq	ec36c0 <__bss_end__+0xeba058>
     9d4:	00000b39 	andeq	r0, r0, r9, lsr fp
     9d8:	01110100 	tsteq	r1, r0, lsl #2
     9dc:	0b130e25 	bleq	4c4278 <__bss_end__+0x4bac10>
     9e0:	0e1b0e03 	cdpeq	14, 1, cr0, cr11, cr3, {0}
     9e4:	06120111 			; <UNDEFINED> instruction: 0x06120111
     9e8:	00001710 	andeq	r1, r0, r0, lsl r7
     9ec:	0b002402 	bleq	99fc <__bss_end__+0x394>
     9f0:	030b3e0b 	movweq	r3, #48651	; 0xbe0b
     9f4:	03000008 	movweq	r0, #8
     9f8:	0b0b0024 	bleq	2c0a90 <__bss_end__+0x2b7428>
     9fc:	0e030b3e 	vmoveq.16	d3[0], r0
     a00:	15040000 	strne	r0, [r4, #-0]
     a04:	49192701 	ldmdbmi	r9, {r0, r8, r9, sl, sp}
     a08:	00130113 	andseq	r0, r3, r3, lsl r1
     a0c:	00050500 	andeq	r0, r5, r0, lsl #10
     a10:	00001349 	andeq	r1, r0, r9, asr #6
     a14:	03003406 	movweq	r3, #1030	; 0x406
     a18:	3b0b3a0e 	blcc	2cf258 <__bss_end__+0x2c5bf0>
     a1c:	490b390b 	stmdbmi	fp, {r0, r1, r3, r8, fp, ip, sp}
     a20:	3c193f13 	ldccc	15, cr3, [r9], {19}
     a24:	07000019 	smladeq	r0, r9, r0, r0
     a28:	0b0b000f 	bleq	2c0a6c <__bss_end__+0x2b7404>
     a2c:	00001349 	andeq	r1, r0, r9, asr #6
     a30:	49002608 	stmdbmi	r0, {r3, r9, sl, sp}
     a34:	09000013 	stmdbeq	r0, {r0, r1, r4}
     a38:	193f002e 	ldmdbne	pc!, {r1, r2, r3, r5}	; <UNPREDICTABLE>
     a3c:	0b3a0e03 	bleq	e84250 <__bss_end__+0xe7abe8>
     a40:	0b390b3b 	bleq	e43734 <__bss_end__+0xe3a0cc>
     a44:	01111927 	tsteq	r1, r7, lsr #18
     a48:	18400612 	stmdane	r0, {r1, r4, r9, sl}^
     a4c:	00194297 	mulseq	r9, r7, r2
     a50:	11010000 	mrsne	r0, (UNDEF: 1)
     a54:	130e2501 	movwne	r2, #58625	; 0xe501
     a58:	1b0e030b 	blne	38168c <__bss_end__+0x378024>
     a5c:	1201110e 	andne	r1, r1, #-2147483645	; 0x80000003
     a60:	00171006 	andseq	r1, r7, r6
     a64:	00240200 	eoreq	r0, r4, r0, lsl #4
     a68:	0b3e0b0b 	bleq	f8369c <__bss_end__+0xf7a034>
     a6c:	00000803 	andeq	r0, r0, r3, lsl #16
     a70:	0b002403 	bleq	9a84 <__bss_end__+0x41c>
     a74:	030b3e0b 	movweq	r3, #48651	; 0xbe0b
     a78:	0400000e 	streq	r0, [r0], #-14
     a7c:	19270115 	stmdbne	r7!, {r0, r2, r4, r8}
     a80:	13011349 	movwne	r1, #4937	; 0x1349
     a84:	05050000 	streq	r0, [r5, #-0]
     a88:	00134900 	andseq	r4, r3, r0, lsl #18
     a8c:	00340600 	eorseq	r0, r4, r0, lsl #12
     a90:	0b3a0e03 	bleq	e842a4 <__bss_end__+0xe7ac3c>
     a94:	0b390b3b 	bleq	e43788 <__bss_end__+0xe3a120>
     a98:	193f1349 	ldmdbne	pc!, {r0, r3, r6, r8, r9, ip}	; <UNPREDICTABLE>
     a9c:	0000193c 	andeq	r1, r0, ip, lsr r9
     aa0:	0b000f07 	bleq	46c4 <__code_start__-0x393c>
     aa4:	0013490b 	andseq	r4, r3, fp, lsl #18
     aa8:	00260800 	eoreq	r0, r6, r0, lsl #16
     aac:	00001349 	andeq	r1, r0, r9, asr #6
     ab0:	3f002e09 	svccc	0x00002e09
     ab4:	3a0e0319 	bcc	381720 <__bss_end__+0x3780b8>
     ab8:	390b3b0b 	stmdbcc	fp, {r0, r1, r3, r8, r9, fp, ip, sp}
     abc:	1119270b 	tstne	r9, fp, lsl #14
     ac0:	40061201 	andmi	r1, r6, r1, lsl #4
     ac4:	19429718 	stmdbne	r2, {r3, r4, r8, r9, sl, ip, pc}^
     ac8:	01000000 	mrseq	r0, (UNDEF: 0)
     acc:	0e250111 	mcreq	1, 1, r0, cr5, cr1, {0}
     ad0:	0e030b13 	vmoveq.32	d3[0], r0
     ad4:	01110e1b 	tsteq	r1, fp, lsl lr
     ad8:	17100612 			; <UNDEFINED> instruction: 0x17100612
     adc:	24020000 	strcs	r0, [r2], #-0
     ae0:	3e0b0b00 	vmlacc.f64	d0, d11, d0
     ae4:	0008030b 	andeq	r0, r8, fp, lsl #6
     ae8:	00240300 	eoreq	r0, r4, r0, lsl #6
     aec:	0b3e0b0b 	bleq	f83720 <__bss_end__+0xf7a0b8>
     af0:	00000e03 	andeq	r0, r0, r3, lsl #28
     af4:	27011504 	strcs	r1, [r1, -r4, lsl #10]
     af8:	01134919 	tsteq	r3, r9, lsl r9
     afc:	05000013 	streq	r0, [r0, #-19]	; 0xffffffed
     b00:	13490005 	movtne	r0, #36869	; 0x9005
     b04:	34060000 	strcc	r0, [r6], #-0
     b08:	3a0e0300 	bcc	381710 <__bss_end__+0x3780a8>
     b0c:	390b3b0b 	stmdbcc	fp, {r0, r1, r3, r8, r9, fp, ip, sp}
     b10:	3f13490b 	svccc	0x0013490b
     b14:	00193c19 	andseq	r3, r9, r9, lsl ip
     b18:	000f0700 	andeq	r0, pc, r0, lsl #14
     b1c:	13490b0b 	movtne	r0, #39691	; 0x9b0b
     b20:	26080000 	strcs	r0, [r8], -r0
     b24:	00134900 	andseq	r4, r3, r0, lsl #18
     b28:	012e0900 			; <UNDEFINED> instruction: 0x012e0900
     b2c:	0e03193f 			; <UNDEFINED> instruction: 0x0e03193f
     b30:	0b3b0b3a 	bleq	ec3820 <__bss_end__+0xeba1b8>
     b34:	19270b39 	stmdbne	r7!, {r0, r3, r4, r5, r8, r9, fp}
     b38:	06120111 			; <UNDEFINED> instruction: 0x06120111
     b3c:	42971840 	addsmi	r1, r7, #64, 16	; 0x400000
     b40:	00130119 	andseq	r0, r3, r9, lsl r1
     b44:	00050a00 	andeq	r0, r5, r0, lsl #20
     b48:	0b3a0803 	bleq	e82b5c <__bss_end__+0xe794f4>
     b4c:	0b390b3b 	bleq	e43840 <__bss_end__+0xe3a1d8>
     b50:	17021349 	strne	r1, [r2, -r9, asr #6]
     b54:	001742b7 			; <UNDEFINED> instruction: 0x001742b7
     b58:	82890b00 	addhi	r0, r9, #0, 22
     b5c:	01110101 	tsteq	r1, r1, lsl #2
     b60:	00001331 	andeq	r1, r0, r1, lsr r3
     b64:	01828a0c 	orreq	r8, r2, ip, lsl #20
     b68:	91180200 	tstls	r8, r0, lsl #4
     b6c:	00001842 	andeq	r1, r0, r2, asr #16
     b70:	0300340d 	movweq	r3, #1037	; 0x40d
     b74:	3b0b3a08 	blcc	2cf39c <__bss_end__+0x2c5d34>
     b78:	490b390b 	stmdbmi	fp, {r0, r1, r3, r8, fp, ip, sp}
     b7c:	b7170213 			; <UNDEFINED> instruction: 0xb7170213
     b80:	00001742 	andeq	r1, r0, r2, asr #14
     b84:	11010b0e 	tstne	r1, lr, lsl #22
     b88:	01061201 	tsteq	r6, r1, lsl #4
     b8c:	0f000013 	svceq	0x00000013
     b90:	00018289 	andeq	r8, r1, r9, lsl #5
     b94:	13310111 	teqne	r1, #1073741828	; 0x40000004
     b98:	2e100000 	cdpcs	0, 1, cr0, cr0, cr0, {0}
     b9c:	03193f01 	tsteq	r9, #1, 30
     ba0:	3b0b3a0e 	blcc	2cf3e0 <__bss_end__+0x2c5d78>
     ba4:	270b390b 	strcs	r3, [fp, -fp, lsl #18]
     ba8:	11134919 	tstne	r3, r9, lsl r9
     bac:	40061201 	andmi	r1, r6, r1, lsl #4
     bb0:	19429718 	stmdbne	r2, {r3, r4, r8, r9, sl, ip, pc}^
     bb4:	00001301 	andeq	r1, r0, r1, lsl #6
     bb8:	3f002e11 	svccc	0x00002e11
     bbc:	6e193c19 	mrcvs	12, 0, r3, cr9, cr9, {0}
     bc0:	3a0e030e 	bcc	381800 <__bss_end__+0x378198>
     bc4:	390b3b0b 	stmdbcc	fp, {r0, r1, r3, r8, r9, fp, ip, sp}
     bc8:	0000000b 	andeq	r0, r0, fp
     bcc:	25011101 	strcs	r1, [r1, #-257]	; 0xfffffeff
     bd0:	030b130e 	movweq	r1, #45838	; 0xb30e
     bd4:	110e1b0e 	tstne	lr, lr, lsl #22
     bd8:	10061201 	andne	r1, r6, r1, lsl #4
     bdc:	02000017 	andeq	r0, r0, #23
     be0:	0b0b0024 	bleq	2c0c78 <__bss_end__+0x2b7610>
     be4:	08030b3e 	stmdaeq	r3, {r1, r2, r3, r4, r5, r8, r9, fp}
     be8:	24030000 	strcs	r0, [r3], #-0
     bec:	3e0b0b00 	vmlacc.f64	d0, d11, d0
     bf0:	000e030b 	andeq	r0, lr, fp, lsl #6
     bf4:	01150400 	tsteq	r5, r0, lsl #8
     bf8:	13491927 	movtne	r1, #39207	; 0x9927
     bfc:	00001301 	andeq	r1, r0, r1, lsl #6
     c00:	49000505 	stmdbmi	r0, {r0, r2, r8, sl}
     c04:	06000013 			; <UNDEFINED> instruction: 0x06000013
     c08:	0e030034 	mcreq	0, 0, r0, cr3, cr4, {1}
     c0c:	0b3b0b3a 	bleq	ec38fc <__bss_end__+0xeba294>
     c10:	13490b39 	movtne	r0, #39737	; 0x9b39
     c14:	193c193f 	ldmdbne	ip!, {r0, r1, r2, r3, r4, r5, r8, fp, ip}
     c18:	0f070000 	svceq	0x00070000
     c1c:	490b0b00 	stmdbmi	fp, {r8, r9, fp}
     c20:	08000013 	stmdaeq	r0, {r0, r1, r4}
     c24:	13490026 	movtne	r0, #36902	; 0x9026
     c28:	04090000 	streq	r0, [r9], #-0
     c2c:	0b0b3e01 	bleq	2d0438 <__bss_end__+0x2c6dd0>
     c30:	3a13490b 	bcc	4d3064 <__bss_end__+0x4c99fc>
     c34:	390b3b0b 	stmdbcc	fp, {r0, r1, r3, r8, r9, fp, ip, sp}
     c38:	0013010b 	andseq	r0, r3, fp, lsl #2
     c3c:	00280a00 	eoreq	r0, r8, r0, lsl #20
     c40:	0b1c0e03 	bleq	704454 <__bss_end__+0x6fadec>
     c44:	2e0b0000 	cdpcs	0, 0, cr0, cr11, cr0, {0}
     c48:	03193f01 	tsteq	r9, #1, 30
     c4c:	3b0b3a0e 	blcc	2cf48c <__bss_end__+0x2c5e24>
     c50:	270b390b 	strcs	r3, [fp, -fp, lsl #18]
     c54:	12011119 	andne	r1, r1, #1073741830	; 0x40000006
     c58:	97184006 	ldrls	r4, [r8, -r6]
     c5c:	13011942 	movwne	r1, #6466	; 0x1942
     c60:	890c0000 	stmdbhi	ip, {}	; <UNPREDICTABLE>
     c64:	11000182 	smlabbne	r0, r2, r1, r0
     c68:	00133101 	andseq	r3, r3, r1, lsl #2
     c6c:	012e0d00 			; <UNDEFINED> instruction: 0x012e0d00
     c70:	0e03193f 			; <UNDEFINED> instruction: 0x0e03193f
     c74:	0b3b0b3a 	bleq	ec3964 <__bss_end__+0xeba2fc>
     c78:	19270b39 	stmdbne	r7!, {r0, r3, r4, r5, r8, r9, fp}
     c7c:	01111349 	tsteq	r1, r9, asr #6
     c80:	18400612 	stmdane	r0, {r1, r4, r9, sl}^
     c84:	01194297 			; <UNDEFINED> instruction: 0x01194297
     c88:	0e000013 	mcreq	0, 0, r0, cr0, cr3, {0}
     c8c:	08030034 	stmdaeq	r3, {r2, r4, r5}
     c90:	0b3b0b3a 	bleq	ec3980 <__bss_end__+0xeba318>
     c94:	13490b39 	movtne	r0, #39737	; 0x9b39
     c98:	42b71702 	adcsmi	r1, r7, #524288	; 0x80000
     c9c:	0f000017 	svceq	0x00000017
     ca0:	01018289 	smlabbeq	r1, r9, r2, r8
     ca4:	13310111 	teqne	r1, #1073741828	; 0x40000004
     ca8:	00001301 	andeq	r1, r0, r1, lsl #6
     cac:	01828a10 	orreq	r8, r2, r0, lsl sl
     cb0:	91180200 	tstls	r8, r0, lsl #4
     cb4:	00001842 	andeq	r1, r0, r2, asr #16
     cb8:	03000511 	movweq	r0, #1297	; 0x511
     cbc:	3b0b3a08 	blcc	2cf4e4 <__bss_end__+0x2c5e7c>
     cc0:	490b390b 	stmdbmi	fp, {r0, r1, r3, r8, fp, ip, sp}
     cc4:	b7170213 			; <UNDEFINED> instruction: 0xb7170213
     cc8:	00001742 	andeq	r1, r0, r2, asr #14
     ccc:	01828912 	orreq	r8, r2, r2, lsl r9
     cd0:	31011101 	tstcc	r1, r1, lsl #2
     cd4:	13000013 	movwne	r0, #19
     cd8:	0e03012e 	adfeqsp	f0, f3, #0.5
     cdc:	0b3b0b3a 	bleq	ec39cc <__bss_end__+0xeba364>
     ce0:	19270b39 	stmdbne	r7!, {r0, r3, r4, r5, r8, r9, fp}
     ce4:	01111349 	tsteq	r1, r9, asr #6
     ce8:	18400612 	stmdane	r0, {r1, r4, r9, sl}^
     cec:	01194297 			; <UNDEFINED> instruction: 0x01194297
     cf0:	14000013 	strne	r0, [r0], #-19	; 0xffffffed
     cf4:	193f002e 	ldmdbne	pc!, {r1, r2, r3, r5}	; <UNPREDICTABLE>
     cf8:	0e6e193c 			; <UNDEFINED> instruction: 0x0e6e193c
     cfc:	0b3a0e03 	bleq	e84510 <__bss_end__+0xe7aea8>
     d00:	0b390b3b 	bleq	e439f4 <__bss_end__+0xe3a38c>
     d04:	01000000 	mrseq	r0, (UNDEF: 0)
     d08:	0e250111 	mcreq	1, 1, r0, cr5, cr1, {0}
     d0c:	0e030b13 	vmoveq.32	d3[0], r0
     d10:	01110e1b 	tsteq	r1, fp, lsl lr
     d14:	17100612 			; <UNDEFINED> instruction: 0x17100612
     d18:	24020000 	strcs	r0, [r2], #-0
     d1c:	3e0b0b00 	vmlacc.f64	d0, d11, d0
     d20:	0008030b 	andeq	r0, r8, fp, lsl #6
     d24:	00240300 	eoreq	r0, r4, r0, lsl #6
     d28:	0b3e0b0b 	bleq	f8395c <__bss_end__+0xf7a2f4>
     d2c:	00000e03 	andeq	r0, r0, r3, lsl #28
     d30:	03001604 	movweq	r1, #1540	; 0x604
     d34:	3b0b3a0e 	blcc	2cf574 <__bss_end__+0x2c5f0c>
     d38:	490b390b 	stmdbmi	fp, {r0, r1, r3, r8, fp, ip, sp}
     d3c:	05000013 	streq	r0, [r0, #-19]	; 0xffffffed
     d40:	19270115 	stmdbne	r7!, {r0, r2, r4, r8}
     d44:	13011349 	movwne	r1, #4937	; 0x1349
     d48:	05060000 	streq	r0, [r6, #-0]
     d4c:	00134900 	andseq	r4, r3, r0, lsl #18
     d50:	00340700 	eorseq	r0, r4, r0, lsl #14
     d54:	0b3a0e03 	bleq	e84568 <__bss_end__+0xe7af00>
     d58:	0b390b3b 	bleq	e43a4c <__bss_end__+0xe3a3e4>
     d5c:	193f1349 	ldmdbne	pc!, {r0, r3, r6, r8, r9, ip}	; <UNPREDICTABLE>
     d60:	0000193c 	andeq	r1, r0, ip, lsr r9
     d64:	0b000f08 	bleq	498c <__code_start__-0x3674>
     d68:	0013490b 	andseq	r4, r3, fp, lsl #18
     d6c:	00260900 	eoreq	r0, r6, r0, lsl #18
     d70:	00001349 	andeq	r1, r0, r9, asr #6
     d74:	0301130a 	movweq	r1, #4874	; 0x130a
     d78:	3a0b0b0e 	bcc	2c39b8 <__bss_end__+0x2ba350>
     d7c:	010b3b0b 	tsteq	fp, fp, lsl #22
     d80:	0b000013 	bleq	dd4 <__code_start__-0x722c>
     d84:	0e03000d 	cdpeq	0, 0, cr0, cr3, cr13, {0}
     d88:	0b381349 	bleq	e05ab4 <__bss_end__+0xdfc44c>
     d8c:	00001934 	andeq	r1, r0, r4, lsr r9
     d90:	0b000f0c 	bleq	49c8 <__code_start__-0x3638>
     d94:	0d00000b 	stceq	0, cr0, [r0, #-44]	; 0xffffffd4
     d98:	193f012e 	ldmdbne	pc!, {r1, r2, r3, r5, r8}	; <UNPREDICTABLE>
     d9c:	0b3a0e03 	bleq	e845b0 <__bss_end__+0xe7af48>
     da0:	0b390b3b 	bleq	e43a94 <__bss_end__+0xe3a42c>
     da4:	13491927 	movtne	r1, #39207	; 0x9927
     da8:	06120111 			; <UNDEFINED> instruction: 0x06120111
     dac:	42971840 	addsmi	r1, r7, #64, 16	; 0x400000
     db0:	00130119 	andseq	r0, r3, r9, lsl r1
     db4:	00050e00 	andeq	r0, r5, r0, lsl #28
     db8:	0b3a0803 	bleq	e82dcc <__bss_end__+0xe79764>
     dbc:	0b390b3b 	bleq	e43ab0 <__bss_end__+0xe3a448>
     dc0:	17021349 	strne	r1, [r2, -r9, asr #6]
     dc4:	001742b7 			; <UNDEFINED> instruction: 0x001742b7
     dc8:	00050f00 	andeq	r0, r5, r0, lsl #30
     dcc:	0b3a0e03 	bleq	e845e0 <__bss_end__+0xe7af78>
     dd0:	0b390b3b 	bleq	e43ac4 <__bss_end__+0xe3a45c>
     dd4:	18021349 	stmdane	r2, {r0, r3, r6, r8, r9, ip}
     dd8:	34100000 	ldrcc	r0, [r0], #-0
     ddc:	3a080300 	bcc	2019e4 <__bss_end__+0x1f837c>
     de0:	390b3b0b 	stmdbcc	fp, {r0, r1, r3, r8, r9, fp, ip, sp}
     de4:	0213490b 	andseq	r4, r3, #180224	; 0x2c000
     de8:	1742b717 	smlaldne	fp, r2, r7, r7
     dec:	34110000 	ldrcc	r0, [r1], #-0
     df0:	3a080300 	bcc	2019f8 <__bss_end__+0x1f8390>
     df4:	390b3b0b 	stmdbcc	fp, {r0, r1, r3, r8, r9, fp, ip, sp}
     df8:	0013490b 	andseq	r4, r3, fp, lsl #18
     dfc:	00341200 	eorseq	r1, r4, r0, lsl #4
     e00:	0b3a0e03 	bleq	e84614 <__bss_end__+0xe7afac>
     e04:	0b390b3b 	bleq	e43af8 <__bss_end__+0xe3a490>
     e08:	17021349 	strne	r1, [r2, -r9, asr #6]
     e0c:	001742b7 			; <UNDEFINED> instruction: 0x001742b7
     e10:	00341300 	eorseq	r1, r4, r0, lsl #6
     e14:	13490e03 	movtne	r0, #40451	; 0x9e03
     e18:	18021934 	stmdane	r2, {r2, r4, r5, r8, fp, ip}
     e1c:	0b140000 	bleq	500e24 <__bss_end__+0x4f77bc>
     e20:	12011101 	andne	r1, r1, #1073741824	; 0x40000000
     e24:	15000006 	strne	r0, [r0, #-6]
     e28:	08030034 	stmdaeq	r3, {r2, r4, r5}
     e2c:	0b3b0b3a 	bleq	ec3b1c <__bss_end__+0xeba4b4>
     e30:	13490b39 	movtne	r0, #39737	; 0x9b39
     e34:	00001802 	andeq	r1, r0, r2, lsl #16
     e38:	03003416 	movweq	r3, #1046	; 0x416
     e3c:	3b0b3a0e 	blcc	2cf67c <__bss_end__+0x2c6014>
     e40:	490b390b 	stmdbmi	fp, {r0, r1, r3, r8, fp, ip, sp}
     e44:	00180213 	andseq	r0, r8, r3, lsl r2
     e48:	010b1700 	tsteq	fp, r0, lsl #14
     e4c:	06120111 			; <UNDEFINED> instruction: 0x06120111
     e50:	00001301 	andeq	r1, r0, r1, lsl #6
     e54:	01828918 	orreq	r8, r2, r8, lsl r9
     e58:	31011101 	tstcc	r1, r1, lsl #2
     e5c:	00130113 	andseq	r0, r3, r3, lsl r1
     e60:	828a1900 	addhi	r1, sl, #0, 18
     e64:	18020001 	stmdane	r2, {r0}
     e68:	00184291 	mulseq	r8, r1, r2
     e6c:	82891a00 	addhi	r1, r9, #0, 20
     e70:	01110001 	tsteq	r1, r1
     e74:	00001331 	andeq	r1, r0, r1, lsr r3
     e78:	0182891b 	orreq	r8, r2, fp, lsl r9
     e7c:	01011101 	tsteq	r1, r1, lsl #2
     e80:	1c000013 	stcne	0, cr0, [r0], {19}
     e84:	13490101 	movtne	r0, #37121	; 0x9101
     e88:	00001301 	andeq	r1, r0, r1, lsl #6
     e8c:	4900211d 	stmdbmi	r0, {r0, r2, r3, r4, r8, sp}
     e90:	000b2f13 	andeq	r2, fp, r3, lsl pc
     e94:	012e1e00 			; <UNDEFINED> instruction: 0x012e1e00
     e98:	0b3a0e03 	bleq	e846ac <__bss_end__+0xe7b044>
     e9c:	0b390b3b 	bleq	e43b90 <__bss_end__+0xe3a528>
     ea0:	13491927 	movtne	r1, #39207	; 0x9927
     ea4:	06120111 			; <UNDEFINED> instruction: 0x06120111
     ea8:	42971840 	addsmi	r1, r7, #64, 16	; 0x400000
     eac:	00130119 	andseq	r0, r3, r9, lsl r1
     eb0:	00051f00 	andeq	r1, r5, r0, lsl #30
     eb4:	0b3a0e03 	bleq	e846c8 <__bss_end__+0xe7b060>
     eb8:	0b390b3b 	bleq	e43bac <__bss_end__+0xe3a544>
     ebc:	17021349 	strne	r1, [r2, -r9, asr #6]
     ec0:	001742b7 			; <UNDEFINED> instruction: 0x001742b7
     ec4:	012e2000 			; <UNDEFINED> instruction: 0x012e2000
     ec8:	0b3a0803 	bleq	e82edc <__bss_end__+0xe79874>
     ecc:	0b390b3b 	bleq	e43bc0 <__bss_end__+0xe3a558>
     ed0:	13491927 	movtne	r1, #39207	; 0x9927
     ed4:	06120111 			; <UNDEFINED> instruction: 0x06120111
     ed8:	42971840 	addsmi	r1, r7, #64, 16	; 0x400000
     edc:	00130119 	andseq	r0, r3, r9, lsl r1
     ee0:	012e2100 			; <UNDEFINED> instruction: 0x012e2100
     ee4:	0e03193f 			; <UNDEFINED> instruction: 0x0e03193f
     ee8:	0b3b0b3a 	bleq	ec3bd8 <__bss_end__+0xeba570>
     eec:	19270b39 	stmdbne	r7!, {r0, r3, r4, r5, r8, r9, fp}
     ef0:	06120111 			; <UNDEFINED> instruction: 0x06120111
     ef4:	42971840 	addsmi	r1, r7, #64, 16	; 0x400000
     ef8:	00130119 	andseq	r0, r3, r9, lsl r1
     efc:	002e2200 	eoreq	r2, lr, r0, lsl #4
     f00:	193c193f 	ldmdbne	ip!, {r0, r1, r2, r3, r4, r5, r8, fp, ip}
     f04:	0e030e6e 	cdpeq	14, 0, cr0, cr3, cr14, {3}
     f08:	0b3b0b3a 	bleq	ec3bf8 <__bss_end__+0xeba590>
     f0c:	00000b39 	andeq	r0, r0, r9, lsr fp
     f10:	01110100 	tsteq	r1, r0, lsl #2
     f14:	0b130e25 	bleq	4c47b0 <__bss_end__+0x4bb148>
     f18:	0e1b0e03 	cdpeq	14, 1, cr0, cr11, cr3, {0}
     f1c:	06120111 			; <UNDEFINED> instruction: 0x06120111
     f20:	00001710 	andeq	r1, r0, r0, lsl r7
     f24:	0b002402 	bleq	9f34 <__bss_end__+0x8cc>
     f28:	030b3e0b 	movweq	r3, #48651	; 0xbe0b
     f2c:	03000008 	movweq	r0, #8
     f30:	0b0b0024 	bleq	2c0fc8 <__bss_end__+0x2b7960>
     f34:	0e030b3e 	vmoveq.16	d3[0], r0
     f38:	15040000 	strne	r0, [r4, #-0]
     f3c:	49192701 	ldmdbmi	r9, {r0, r8, r9, sl, sp}
     f40:	00130113 	andseq	r0, r3, r3, lsl r1
     f44:	00050500 	andeq	r0, r5, r0, lsl #10
     f48:	00001349 	andeq	r1, r0, r9, asr #6
     f4c:	03003406 	movweq	r3, #1030	; 0x406
     f50:	3b0b3a0e 	blcc	2cf790 <__bss_end__+0x2c6128>
     f54:	490b390b 	stmdbmi	fp, {r0, r1, r3, r8, fp, ip, sp}
     f58:	3c193f13 	ldccc	15, cr3, [r9], {19}
     f5c:	07000019 	smladeq	r0, r9, r0, r0
     f60:	0b0b000f 	bleq	2c0fa4 <__bss_end__+0x2b793c>
     f64:	00001349 	andeq	r1, r0, r9, asr #6
     f68:	49002608 	stmdbmi	r0, {r3, r9, sl, sp}
     f6c:	09000013 	stmdbeq	r0, {r0, r1, r4}
     f70:	193f012e 	ldmdbne	pc!, {r1, r2, r3, r5, r8}	; <UNPREDICTABLE>
     f74:	0b3a0e03 	bleq	e84788 <__bss_end__+0xe7b120>
     f78:	0b390b3b 	bleq	e43c6c <__bss_end__+0xe3a604>
     f7c:	13491927 	movtne	r1, #39207	; 0x9927
     f80:	06120111 			; <UNDEFINED> instruction: 0x06120111
     f84:	42971840 	addsmi	r1, r7, #64, 16	; 0x400000
     f88:	0a000019 	beq	ff4 <__code_start__-0x700c>
     f8c:	08030005 	stmdaeq	r3, {r0, r2}
     f90:	0b3b0b3a 	bleq	ec3c80 <__bss_end__+0xeba618>
     f94:	13490b39 	movtne	r0, #39737	; 0x9b39
     f98:	42b71702 	adcsmi	r1, r7, #524288	; 0x80000
     f9c:	00000017 	andeq	r0, r0, r7, lsl r0
     fa0:	25011101 	strcs	r1, [r1, #-257]	; 0xfffffeff
     fa4:	030b130e 	movweq	r1, #45838	; 0xb30e
     fa8:	110e1b0e 	tstne	lr, lr, lsl #22
     fac:	10061201 	andne	r1, r6, r1, lsl #4
     fb0:	02000017 	andeq	r0, r0, #23
     fb4:	0b0b0024 	bleq	2c104c <__bss_end__+0x2b79e4>
     fb8:	08030b3e 	stmdaeq	r3, {r1, r2, r3, r4, r5, r8, r9, fp}
     fbc:	24030000 	strcs	r0, [r3], #-0
     fc0:	3e0b0b00 	vmlacc.f64	d0, d11, d0
     fc4:	000e030b 	andeq	r0, lr, fp, lsl #6
     fc8:	01150400 	tsteq	r5, r0, lsl #8
     fcc:	13491927 	movtne	r1, #39207	; 0x9927
     fd0:	00001301 	andeq	r1, r0, r1, lsl #6
     fd4:	49000505 	stmdbmi	r0, {r0, r2, r8, sl}
     fd8:	06000013 			; <UNDEFINED> instruction: 0x06000013
     fdc:	0e030034 	mcreq	0, 0, r0, cr3, cr4, {1}
     fe0:	0b3b0b3a 	bleq	ec3cd0 <__bss_end__+0xeba668>
     fe4:	13490b39 	movtne	r0, #39737	; 0x9b39
     fe8:	193c193f 	ldmdbne	ip!, {r0, r1, r2, r3, r4, r5, r8, fp, ip}
     fec:	0f070000 	svceq	0x00070000
     ff0:	490b0b00 	stmdbmi	fp, {r8, r9, fp}
     ff4:	08000013 	stmdaeq	r0, {r0, r1, r4}
     ff8:	13490026 	movtne	r0, #36902	; 0x9026
     ffc:	2e090000 	cdpcs	0, 0, cr0, cr9, cr0, {0}
    1000:	03193f01 	tsteq	r9, #1, 30
    1004:	3b0b3a0e 	blcc	2cf844 <__bss_end__+0x2c61dc>
    1008:	270b390b 	strcs	r3, [fp, -fp, lsl #18]
    100c:	11134919 	tstne	r3, r9, lsl r9
    1010:	40061201 	andmi	r1, r6, r1, lsl #4
    1014:	19429718 	stmdbne	r2, {r3, r4, r8, r9, sl, ip, pc}^
    1018:	00001301 	andeq	r1, r0, r1, lsl #6
    101c:	0300050a 	movweq	r0, #1290	; 0x50a
    1020:	3b0b3a08 	blcc	2cf848 <__bss_end__+0x2c61e0>
    1024:	490b390b 	stmdbmi	fp, {r0, r1, r3, r8, fp, ip, sp}
    1028:	00180213 	andseq	r0, r8, r3, lsl r2
    102c:	00050b00 	andeq	r0, r5, r0, lsl #22
    1030:	0b3a0803 	bleq	e83044 <__bss_end__+0xe799dc>
    1034:	0b390b3b 	bleq	e43d28 <__bss_end__+0xe3a6c0>
    1038:	17021349 	strne	r1, [r2, -r9, asr #6]
    103c:	001742b7 			; <UNDEFINED> instruction: 0x001742b7
    1040:	00340c00 	eorseq	r0, r4, r0, lsl #24
    1044:	0b3a0803 	bleq	e83058 <__bss_end__+0xe799f0>
    1048:	0b390b3b 	bleq	e43d3c <__bss_end__+0xe3a6d4>
    104c:	17021349 	strne	r1, [r2, -r9, asr #6]
    1050:	001742b7 			; <UNDEFINED> instruction: 0x001742b7
    1054:	11010000 	mrsne	r0, (UNDEF: 1)
    1058:	130e2501 	movwne	r2, #58625	; 0xe501
    105c:	1b0e030b 	blne	381c90 <__bss_end__+0x378628>
    1060:	1201110e 	andne	r1, r1, #-2147483645	; 0x80000003
    1064:	00171006 	andseq	r1, r7, r6
    1068:	00240200 	eoreq	r0, r4, r0, lsl #4
    106c:	0b3e0b0b 	bleq	f83ca0 <__bss_end__+0xf7a638>
    1070:	00000803 	andeq	r0, r0, r3, lsl #16
    1074:	0b002403 	bleq	a088 <__bss_end__+0xa20>
    1078:	030b3e0b 	movweq	r3, #48651	; 0xbe0b
    107c:	0400000e 	streq	r0, [r0], #-14
    1080:	19270115 	stmdbne	r7!, {r0, r2, r4, r8}
    1084:	13011349 	movwne	r1, #4937	; 0x1349
    1088:	05050000 	streq	r0, [r5, #-0]
    108c:	00134900 	andseq	r4, r3, r0, lsl #18
    1090:	00340600 	eorseq	r0, r4, r0, lsl #12
    1094:	0b3a0e03 	bleq	e848a8 <__bss_end__+0xe7b240>
    1098:	0b390b3b 	bleq	e43d8c <__bss_end__+0xe3a724>
    109c:	193f1349 	ldmdbne	pc!, {r0, r3, r6, r8, r9, ip}	; <UNPREDICTABLE>
    10a0:	0000193c 	andeq	r1, r0, ip, lsr r9
    10a4:	0b000f07 	bleq	4cc8 <__code_start__-0x3338>
    10a8:	0013490b 	andseq	r4, r3, fp, lsl #18
    10ac:	00260800 	eoreq	r0, r6, r0, lsl #16
    10b0:	00001349 	andeq	r1, r0, r9, asr #6
    10b4:	3f012e09 	svccc	0x00012e09
    10b8:	3a0e0319 	bcc	381d24 <__bss_end__+0x3786bc>
    10bc:	390b3b0b 	stmdbcc	fp, {r0, r1, r3, r8, r9, fp, ip, sp}
    10c0:	4919270b 	ldmdbmi	r9, {r0, r1, r3, r8, r9, sl, sp}
    10c4:	12011113 	andne	r1, r1, #-1073741820	; 0xc0000004
    10c8:	97184006 	ldrls	r4, [r8, -r6]
    10cc:	13011942 	movwne	r1, #6466	; 0x1942
    10d0:	050a0000 	streq	r0, [sl, #-0]
    10d4:	3a0e0300 	bcc	381cdc <__bss_end__+0x378674>
    10d8:	390b3b0b 	stmdbcc	fp, {r0, r1, r3, r8, r9, fp, ip, sp}
    10dc:	0213490b 	andseq	r4, r3, #180224	; 0x2c000
    10e0:	0b000018 	bleq	1148 <__code_start__-0x6eb8>
    10e4:	08030005 	stmdaeq	r3, {r0, r2}
    10e8:	0b3b0b3a 	bleq	ec3dd8 <__bss_end__+0xeba770>
    10ec:	13490b39 	movtne	r0, #39737	; 0x9b39
    10f0:	42b71702 	adcsmi	r1, r7, #524288	; 0x80000
    10f4:	0c000017 	stceq	0, cr0, [r0], {23}
    10f8:	08030034 	stmdaeq	r3, {r2, r4, r5}
    10fc:	0b3b0b3a 	bleq	ec3dec <__bss_end__+0xeba784>
    1100:	13490b39 	movtne	r0, #39737	; 0x9b39
    1104:	42b71702 	adcsmi	r1, r7, #524288	; 0x80000
    1108:	00000017 	andeq	r0, r0, r7, lsl r0
    110c:	25011101 	strcs	r1, [r1, #-257]	; 0xfffffeff
    1110:	030b130e 	movweq	r1, #45838	; 0xb30e
    1114:	550e1b0e 	strpl	r1, [lr, #-2830]	; 0xfffff4f2
    1118:	10011117 	andne	r1, r1, r7, lsl r1
    111c:	02000017 	andeq	r0, r0, #23
    1120:	0b0b0024 	bleq	2c11b8 <__bss_end__+0x2b7b50>
    1124:	08030b3e 	stmdaeq	r3, {r1, r2, r3, r4, r5, r8, r9, fp}
    1128:	16030000 	strne	r0, [r3], -r0
    112c:	3a0e0300 	bcc	381d34 <__bss_end__+0x3786cc>
    1130:	390b3b0b 	stmdbcc	fp, {r0, r1, r3, r8, r9, fp, ip, sp}
    1134:	0013490b 	andseq	r4, r3, fp, lsl #18
    1138:	00240400 	eoreq	r0, r4, r0, lsl #8
    113c:	0b3e0b0b 	bleq	f83d70 <__bss_end__+0xf7a708>
    1140:	00000e03 	andeq	r0, r0, r3, lsl #28
    1144:	49002605 	stmdbmi	r0, {r0, r2, r9, sl, sp}
    1148:	06000013 			; <UNDEFINED> instruction: 0x06000013
    114c:	19270115 	stmdbne	r7!, {r0, r2, r4, r8}
    1150:	13011349 	movwne	r1, #4937	; 0x1349
    1154:	05070000 	streq	r0, [r7, #-0]
    1158:	00134900 	andseq	r4, r3, r0, lsl #18
    115c:	00340800 	eorseq	r0, r4, r0, lsl #16
    1160:	0b3a0e03 	bleq	e84974 <__bss_end__+0xe7b30c>
    1164:	0b390b3b 	bleq	e43e58 <__bss_end__+0xe3a7f0>
    1168:	193f1349 	ldmdbne	pc!, {r0, r3, r6, r8, r9, ip}	; <UNPREDICTABLE>
    116c:	0000193c 	andeq	r1, r0, ip, lsr r9
    1170:	0b000f09 	bleq	4d9c <__code_start__-0x3264>
    1174:	0013490b 	andseq	r4, r3, fp, lsl #18
    1178:	012e0a00 			; <UNDEFINED> instruction: 0x012e0a00
    117c:	0e03193f 			; <UNDEFINED> instruction: 0x0e03193f
    1180:	0b3b0b3a 	bleq	ec3e70 <__bss_end__+0xeba808>
    1184:	19270b39 	stmdbne	r7!, {r0, r3, r4, r5, r8, r9, fp}
    1188:	01111349 	tsteq	r1, r9, asr #6
    118c:	18400612 	stmdane	r0, {r1, r4, r9, sl}^
    1190:	01194297 			; <UNDEFINED> instruction: 0x01194297
    1194:	0b000013 	bleq	11e8 <__code_start__-0x6e18>
    1198:	08030005 	stmdaeq	r3, {r0, r2}
    119c:	0b3b0b3a 	bleq	ec3e8c <__bss_end__+0xeba824>
    11a0:	13490b39 	movtne	r0, #39737	; 0x9b39
    11a4:	42b71702 	adcsmi	r1, r7, #524288	; 0x80000
    11a8:	0c000017 	stceq	0, cr0, [r0], {23}
    11ac:	08030034 	stmdaeq	r3, {r2, r4, r5}
    11b0:	0b3b0b3a 	bleq	ec3ea0 <__bss_end__+0xeba838>
    11b4:	13490b39 	movtne	r0, #39737	; 0x9b39
    11b8:	42b71702 	adcsmi	r1, r7, #524288	; 0x80000
    11bc:	00000017 	andeq	r0, r0, r7, lsl r0

Disassembly of section .debug_aranges:

00000000 <.debug_aranges>:
   0:	0000001c 	andeq	r0, r0, ip, lsl r0
   4:	00000002 	andeq	r0, r0, r2
   8:	00040000 	andeq	r0, r4, r0
   c:	00000000 	andeq	r0, r0, r0
  10:	00008038 	andeq	r8, r0, r8, lsr r0
  14:	00000010 	andeq	r0, r0, r0, lsl r0
	...
  20:	0000001c 	andeq	r0, r0, ip, lsl r0
  24:	01010002 	tsteq	r1, r2
  28:	00040000 	andeq	r0, r4, r0
  2c:	00000000 	andeq	r0, r0, r0
  30:	00008048 	andeq	r8, r0, r8, asr #32
  34:	00000274 	andeq	r0, r0, r4, ror r2
	...
  40:	0000001c 	andeq	r0, r0, ip, lsl r0
  44:	08400002 	stmdaeq	r0, {r1}^
  48:	00040000 	andeq	r0, r4, r0
  4c:	00000000 	andeq	r0, r0, r0
  50:	000082bc 			; <UNDEFINED> instruction: 0x000082bc
  54:	00000144 	andeq	r0, r0, r4, asr #2
	...
  60:	0000001c 	andeq	r0, r0, ip, lsl r0
  64:	0cdd0002 	ldcleq	0, cr0, [sp], {2}
  68:	00040000 	andeq	r0, r4, r0
  6c:	00000000 	andeq	r0, r0, r0
  70:	00008400 	andeq	r8, r0, r0, lsl #8
  74:	00000058 	andeq	r0, r0, r8, asr r0
	...
  80:	0000001c 	andeq	r0, r0, ip, lsl r0
  84:	0e7e0002 	cdpeq	0, 7, cr0, cr14, cr2, {0}
  88:	00040000 	andeq	r0, r4, r0
  8c:	00000000 	andeq	r0, r0, r0
  90:	00008458 	andeq	r8, r0, r8, asr r4
  94:	00000034 	andeq	r0, r0, r4, lsr r0
	...
  a0:	0000001c 	andeq	r0, r0, ip, lsl r0
  a4:	0f750002 	svceq	0x00750002
  a8:	00040000 	andeq	r0, r4, r0
  ac:	00000000 	andeq	r0, r0, r0
  b0:	0000848c 	andeq	r8, r0, ip, lsl #9
  b4:	0000003c 	andeq	r0, r0, ip, lsr r0
	...
  c0:	0000001c 	andeq	r0, r0, ip, lsl r0
  c4:	10c20002 	sbcne	r0, r2, r2
  c8:	00040000 	andeq	r0, r4, r0
  cc:	00000000 	andeq	r0, r0, r0
  d0:	000084c8 	andeq	r8, r0, r8, asr #9
  d4:	0000002c 	andeq	r0, r0, ip, lsr #32
	...
  e0:	0000001c 	andeq	r0, r0, ip, lsl r0
  e4:	11f50002 	mvnsne	r0, r2
  e8:	00040000 	andeq	r0, r4, r0
  ec:	00000000 	andeq	r0, r0, r0
  f0:	000084f4 	strdeq	r8, [r0], -r4
  f4:	0000003c 	andeq	r0, r0, ip, lsr r0
	...
 100:	0000001c 	andeq	r0, r0, ip, lsl r0
 104:	13820002 	orrne	r0, r2, #2
 108:	00040000 	andeq	r0, r4, r0
 10c:	00000000 	andeq	r0, r0, r0
 110:	00008530 	andeq	r8, r0, r0, lsr r5
 114:	00000080 	andeq	r0, r0, r0, lsl #1
	...
 120:	0000001c 	andeq	r0, r0, ip, lsl r0
 124:	15bc0002 	ldrne	r0, [ip, #2]!
 128:	00040000 	andeq	r0, r4, r0
 12c:	00000000 	andeq	r0, r0, r0
 130:	000085b0 			; <UNDEFINED> instruction: 0x000085b0
 134:	00000004 	andeq	r0, r0, r4
	...
 140:	0000001c 	andeq	r0, r0, ip, lsl r0
 144:	168e0002 	strne	r0, [lr], r2
 148:	00040000 	andeq	r0, r4, r0
 14c:	00000000 	andeq	r0, r0, r0
 150:	000085b4 			; <UNDEFINED> instruction: 0x000085b4
 154:	00000004 	andeq	r0, r0, r4
	...
 160:	0000001c 	andeq	r0, r0, ip, lsl r0
 164:	17600002 	strbne	r0, [r0, -r2]!
 168:	00040000 	andeq	r0, r4, r0
 16c:	00000000 	andeq	r0, r0, r0
 170:	000085b8 			; <UNDEFINED> instruction: 0x000085b8
 174:	00000084 	andeq	r0, r0, r4, lsl #1
	...
 180:	0000001c 	andeq	r0, r0, ip, lsl r0
 184:	19b10002 	ldmibne	r1!, {r1}
 188:	00040000 	andeq	r0, r4, r0
 18c:	00000000 	andeq	r0, r0, r0
 190:	0000863c 	andeq	r8, r0, ip, lsr r6
 194:	000001e8 	andeq	r0, r0, r8, ror #3
	...
 1a0:	0000001c 	andeq	r0, r0, ip, lsl r0
 1a4:	1ea90002 	cdpne	0, 10, cr0, cr9, cr2, {0}
 1a8:	00040000 	andeq	r0, r4, r0
 1ac:	00000000 	andeq	r0, r0, r0
 1b0:	00008824 	andeq	r8, r0, r4, lsr #16
 1b4:	00000720 	andeq	r0, r0, r0, lsr #14
	...
 1c0:	0000001c 	andeq	r0, r0, ip, lsl r0
 1c4:	29420002 	stmdbcs	r2, {r1}^
 1c8:	00040000 	andeq	r0, r4, r0
 1cc:	00000000 	andeq	r0, r0, r0
 1d0:	00008f44 	andeq	r8, r0, r4, asr #30
 1d4:	0000002c 	andeq	r0, r0, ip, lsr #32
	...
 1e0:	0000001c 	andeq	r0, r0, ip, lsl r0
 1e4:	2a3d0002 	bcs	f401f4 <__bss_end__+0xf36b8c>
 1e8:	00040000 	andeq	r0, r4, r0
 1ec:	00000000 	andeq	r0, r0, r0
 1f0:	00008f70 	andeq	r8, r0, r0, ror pc
 1f4:	00000020 	andeq	r0, r0, r0, lsr #32
	...
 200:	0000001c 	andeq	r0, r0, ip, lsl r0
 204:	2b500002 	blcs	1400214 <__bss_end__+0x13f6bac>
 208:	00040000 	andeq	r0, r4, r0
 20c:	00000000 	andeq	r0, r0, r0
 210:	00008f90 	muleq	r0, r0, pc	; <UNPREDICTABLE>
 214:	00000034 	andeq	r0, r0, r4, lsr r0
	...
 220:	0000001c 	andeq	r0, r0, ip, lsl r0
 224:	2c8b0002 	stccs	0, cr0, [fp], {2}
 228:	00040000 	andeq	r0, r4, r0
 22c:	00000000 	andeq	r0, r0, r0
 230:	00008fc4 	andeq	r8, r0, r4, asr #31
 234:	0000002c 	andeq	r0, r0, ip, lsr #32
	...

Disassembly of section .debug_line:

00000000 <.debug_line>:
       0:	00000084 	andeq	r0, r0, r4, lsl #1
       4:	00670003 	rsbeq	r0, r7, r3
       8:	01020000 	mrseq	r0, (UNDEF: 2)
       c:	000d0efb 	strdeq	r0, [sp], -fp
      10:	01010101 	tsteq	r1, r1, lsl #2
      14:	01000000 	mrseq	r0, (UNDEF: 0)
      18:	2f010000 	svccs	0x00010000
      1c:	656d6f68 	strbvs	r6, [sp, #-3944]!	; 0xfffff098
      20:	6e65622f 	cdpvs	2, 6, cr6, cr5, cr15, {1}
      24:	3173632f 	cmncc	r3, pc, lsr #6
      28:	2f653034 	svccs	0x00653034
      2c:	34317363 	ldrtcc	r7, [r1], #-867	; 0xfffffc9d
      30:	322d6530 	eorcc	r6, sp, #48, 10	; 0xc000000
      34:	6e697732 	mcrvs	7, 3, r7, cr9, cr2, {1}
      38:	62696c2f 	rsbvs	r6, r9, #12032	; 0x2f00
      3c:	692f6970 	stmdbvs	pc!, {r4, r5, r6, r8, fp, sp, lr}	; <UNPREDICTABLE>
      40:	756c636e 	strbvc	r6, [ip, #-878]!	; 0xfffffc92
      44:	00006564 	andeq	r6, r0, r4, ror #10
      48:	65642d30 	strbvs	r2, [r4, #-3376]!	; 0xfffff2d0
      4c:	65636976 	strbvs	r6, [r3, #-2422]!	; 0xfffff68a
      50:	6174732d 	cmnvs	r4, sp, lsr #6
      54:	2e737574 	mrccs	5, 3, r7, cr3, cr4, {3}
      58:	00000063 	andeq	r0, r0, r3, rrx
      5c:	69707200 	ldmdbvs	r0!, {r9, ip, sp, lr}^
      60:	0100682e 	tsteq	r0, lr, lsr #16
      64:	746a0000 	strbtvc	r0, [sl], #-0
      68:	682e6761 	stmdavs	lr!, {r0, r5, r6, r8, r9, sl, sp, lr}
      6c:	00000000 	andeq	r0, r0, r0
      70:	00140500 	andseq	r0, r4, r0, lsl #10
      74:	80380205 	eorshi	r0, r8, r5, lsl #4
      78:	05150000 	ldreq	r0, [r5, #-0]
      7c:	052f2f05 	streq	r2, [pc, #-3845]!	; fffff17f <__bss_end__+0xffff5b17>
      80:	022f0601 	eoreq	r0, pc, #1048576	; 0x100000
      84:	01010002 	tsteq	r1, r2
      88:	000002e7 	andeq	r0, r0, r7, ror #5
      8c:	00cb0003 	sbceq	r0, fp, r3
      90:	01020000 	mrseq	r0, (UNDEF: 2)
      94:	000d0efb 	strdeq	r0, [sp], -fp
      98:	01010101 	tsteq	r1, r1, lsl #2
      9c:	01000000 	mrseq	r0, (UNDEF: 0)
      a0:	2f010000 	svccs	0x00010000
      a4:	656d6f68 	strbvs	r6, [sp, #-3944]!	; 0xfffff098
      a8:	6e65622f 	cdpvs	2, 6, cr6, cr5, cr15, {1}
      ac:	3173632f 	cmncc	r3, pc, lsr #6
      b0:	2f653034 	svccs	0x00653034
      b4:	34317363 	ldrtcc	r7, [r1], #-867	; 0xfffffc9d
      b8:	322d6530 	eorcc	r6, sp, #48, 10	; 0xc000000
      bc:	6e697732 	mcrvs	7, 3, r7, cr9, cr2, {1}
      c0:	62696c2f 	rsbvs	r6, r9, #12032	; 0x2f00
      c4:	6c2f6970 			; <UNDEFINED> instruction: 0x6c2f6970
      c8:	00636269 	rsbeq	r6, r3, r9, ror #4
      cc:	7273752f 	rsbsvc	r7, r3, #197132288	; 0xbc00000
      d0:	62696c2f 	rsbvs	r6, r9, #12032	; 0x2f00
      d4:	6363672f 	cmnvs	r3, #12320768	; 0xbc0000
      d8:	6d72612f 	ldfvse	f6, [r2, #-188]!	; 0xffffff44
      dc:	6e6f6e2d 	cdpvs	14, 6, cr6, cr15, cr13, {1}
      e0:	61652d65 	cmnvs	r5, r5, ror #26
      e4:	392f6962 	stmdbcc	pc!, {r1, r5, r6, r8, fp, sp, lr}	; <UNPREDICTABLE>
      e8:	312e322e 			; <UNDEFINED> instruction: 0x312e322e
      ec:	636e692f 	cmnvs	lr, #770048	; 0xbc000
      f0:	6564756c 	strbvs	r7, [r4, #-1388]!	; 0xfffffa94
      f4:	6f682f00 	svcvs	0x00682f00
      f8:	622f656d 	eorvs	r6, pc, #457179136	; 0x1b400000
      fc:	632f6e65 			; <UNDEFINED> instruction: 0x632f6e65
     100:	30343173 	eorscc	r3, r4, r3, ror r1
     104:	73632f65 	cmnvc	r3, #404	; 0x194
     108:	65303431 	ldrvs	r3, [r0, #-1073]!	; 0xfffffbcf
     10c:	7732322d 	ldrvc	r3, [r2, -sp, lsr #4]!
     110:	6c2f6e69 	stcvs	14, cr6, [pc], #-420	; ffffff74 <__bss_end__+0xffff690c>
     114:	69706269 	ldmdbvs	r0!, {r0, r3, r5, r6, r9, sp, lr}^
     118:	636e692f 	cmnvs	lr, #770048	; 0xbc000
     11c:	6564756c 	strbvs	r7, [r4, #-1388]!	; 0xfffffa94
     120:	746a0000 	strbtvc	r0, [sl], #-0
     124:	632e6761 			; <UNDEFINED> instruction: 0x632e6761
     128:	00000000 	andeq	r0, r0, r0
     12c:	2d746962 			; <UNDEFINED> instruction: 0x2d746962
     130:	70707573 	rsbsvc	r7, r0, r3, ror r5
     134:	2e74726f 	cdpcs	2, 7, cr7, cr4, cr15, {3}
     138:	00010068 	andeq	r0, r1, r8, rrx
     13c:	64747300 	ldrbtvs	r7, [r4], #-768	; 0xfffffd00
     140:	2e746e69 	cdpcs	14, 7, cr6, cr4, cr9, {3}
     144:	00020068 	andeq	r0, r2, r8, rrx
     148:	69707200 	ldmdbvs	r0!, {r9, ip, sp, lr}^
     14c:	0300682e 	movweq	r6, #2094	; 0x82e
     150:	70670000 	rsbvc	r0, r7, r0
     154:	682e6f69 	stmdavs	lr!, {r0, r3, r5, r6, r8, r9, sl, fp, sp, lr}
     158:	00000300 	andeq	r0, r0, r0, lsl #6
     15c:	001b0500 	andseq	r0, fp, r0, lsl #10
     160:	80480205 	subhi	r0, r8, r5, lsl #4
     164:	f8030000 			; <UNDEFINED> instruction: 0xf8030000
     168:	05050100 	streq	r0, [r5, #-256]	; 0xffffff00
     16c:	4b4b4b2f 	blmi	12d2e30 <__bss_end__+0x12c97c8>
     170:	4b060105 	blmi	18058c <__bss_end__+0x176f24>
     174:	03064005 	movweq	r4, #24581	; 0x6005
     178:	01062e74 	tsteq	r6, r4, ror lr
     17c:	83060505 	movwhi	r0, #25861	; 0x6505
     180:	05010905 	streq	r0, [r1, #-2309]	; 0xfffff6fb
     184:	05010612 	streq	r0, [r1, #-1554]	; 0xfffff9ee
     188:	04020019 	streq	r0, [r2], #-25	; 0xffffffe7
     18c:	052e0601 	streq	r0, [lr, #-1537]!	; 0xfffff9ff
     190:	04020005 	streq	r0, [r2], #-5
     194:	05010601 	streq	r0, [r1, #-1537]	; 0xfffff9ff
     198:	04020009 	streq	r0, [r2], #-9
     19c:	054b0603 	strbeq	r0, [fp, #-1539]	; 0xfffff9fd
     1a0:	0402001e 	streq	r0, [r2], #-30	; 0xffffffe2
     1a4:	05010603 	streq	r0, [r1, #-1539]	; 0xfffff9fd
     1a8:	04020009 	streq	r0, [r2], #-9
     1ac:	02002e03 	andeq	r2, r0, #3, 28	; 0x30
     1b0:	67060304 	strvs	r0, [r6, -r4, lsl #6]
     1b4:	02002005 	andeq	r2, r0, #5
     1b8:	052c0304 	streq	r0, [ip, #-772]!	; 0xfffffcfc
     1bc:	04020021 	streq	r0, [r2], #-33	; 0xffffffdf
     1c0:	00010603 	andeq	r0, r1, r3, lsl #12
     1c4:	2e030402 	cdpcs	4, 0, cr0, cr3, cr2, {0}
     1c8:	03061905 	movweq	r1, #26885	; 0x6905
     1cc:	052e7f91 	streq	r7, [lr, #-3985]!	; 0xfffff06f
     1d0:	4b4b2f05 	blmi	12cbdec <__bss_end__+0x12c2784>
     1d4:	4b4b4b4b 	blmi	12d2f08 <__bss_end__+0x12c98a0>
     1d8:	4b060105 	blmi	1805f4 <__bss_end__+0x176f8c>
     1dc:	32062305 	andcc	r2, r6, #335544320	; 0x14000000
     1e0:	012f0505 			; <UNDEFINED> instruction: 0x012f0505
     1e4:	031c059e 	tsteq	ip, #662700032	; 0x27800000
     1e8:	0106822f 	tsteq	r6, pc, lsr #4
     1ec:	4b060505 	blmi	181608 <__bss_end__+0x177fa0>
     1f0:	2f062e06 	svccs	0x00062e06
     1f4:	0601054b 	streq	r0, [r1], -fp, asr #10
     1f8:	061f0583 	ldreq	r0, [pc], -r3, lsl #11
     1fc:	05010630 	streq	r0, [r1, #-1584]	; 0xfffff9d0
     200:	064c0605 	strbeq	r0, [ip], -r5, lsl #12
     204:	4b310666 	blmi	c41ba4 <__bss_end__+0xc3853c>
     208:	05010905 	streq	r0, [r1, #-2309]	; 0xfffff6fb
     20c:	05010611 	streq	r0, [r1, #-1553]	; 0xfffff9ef
     210:	0d052e05 	stceq	14, cr2, [r5, #-20]	; 0xffffffec
     214:	09053006 	stmdbeq	r5, {r1, r2, ip, sp}
     218:	02040200 	andeq	r0, r4, #0, 4
     21c:	001e054c 	andseq	r0, lr, ip, asr #10
     220:	06020402 	streq	r0, [r2], -r2, lsl #8
     224:	00090501 	andeq	r0, r9, r1, lsl #10
     228:	2e020402 	cdpcs	4, 0, cr0, cr2, cr2, {0}
     22c:	02040200 	andeq	r0, r4, #0, 4
     230:	1d056706 	stcne	7, cr6, [r5, #-24]	; 0xffffffe8
     234:	02040200 	andeq	r0, r4, #0, 4
     238:	001e0529 	andseq	r0, lr, r9, lsr #10
     23c:	06020402 	streq	r0, [r2], -r2, lsl #8
     240:	04020001 	streq	r0, [r2], #-1
     244:	16052e02 	strne	r2, [r5], -r2, lsl #28
     248:	01040200 	mrseq	r0, R12_usr
     24c:	05052e06 	streq	r2, [r5, #-3590]	; 0xfffff1fa
     250:	01040200 	mrseq	r0, R12_usr
     254:	09050106 	stmdbeq	r5, {r1, r2, r8}
     258:	0b054b06 	bleq	152e78 <__bss_end__+0x149810>
     25c:	05050106 	streq	r0, [r5, #-262]	; 0xfffffefa
     260:	01056e06 	tsteq	r5, r6, lsl #28
     264:	23058306 	movwcs	r8, #21254	; 0x5306
     268:	01063006 	tsteq	r6, r6
     26c:	4c060505 	cfstr32mi	mvfx0, [r6], {5}
     270:	2f062e06 	svccs	0x00062e06
     274:	0a051584 	beq	14588c <__bss_end__+0x13c224>
     278:	06130501 	ldreq	r0, [r3], -r1, lsl #10
     27c:	2b0e0501 	blcs	381688 <__bss_end__+0x378020>
     280:	05310505 	ldreq	r0, [r1, #-1285]!	; 0xfffffafb
     284:	04020009 	streq	r0, [r2], #-9
     288:	052f0603 	streq	r0, [pc, #-1539]!	; fffffc8d <__bss_end__+0xffff6625>
     28c:	0402001f 	streq	r0, [r2], #-31	; 0xffffffe1
     290:	05010603 	streq	r0, [r1, #-1539]	; 0xfffff9fd
     294:	04020009 	streq	r0, [r2], #-9
     298:	02002e03 	andeq	r2, r0, #3, 28	; 0x30
     29c:	67060304 	strvs	r0, [r6, -r4, lsl #6]
     2a0:	02001505 	andeq	r1, r0, #20971520	; 0x1400000
     2a4:	01060304 	tsteq	r6, r4, lsl #6
     2a8:	02001105 	andeq	r1, r0, #1073741825	; 0x40000001
     2ac:	054a0304 	strbeq	r0, [sl, #-772]	; 0xfffffcfc
     2b0:	04020009 	streq	r0, [r2], #-9
     2b4:	052f0603 	streq	r0, [pc, #-1539]!	; fffffcb9 <__bss_end__+0xffff6651>
     2b8:	0402002e 	streq	r0, [r2], #-46	; 0xffffffd2
     2bc:	2f052b03 	svccs	0x00052b03
     2c0:	03040200 	movweq	r0, #16896	; 0x4200
     2c4:	1a050106 	bne	1406e4 <__bss_end__+0x13707c>
     2c8:	01040200 	mrseq	r0, R12_usr
     2cc:	05052e06 	streq	r2, [r5, #-3590]	; 0xfffff1fa
     2d0:	01040200 	mrseq	r0, R12_usr
     2d4:	50060106 	andpl	r0, r6, r6, lsl #2
     2d8:	1105674b 	tstne	r5, fp, asr #14
     2dc:	0d050106 	stfeqs	f0, [r5, #-24]	; 0xffffffe8
     2e0:	0605054a 	streq	r0, [r5], -sl, asr #10
     2e4:	0584312f 	streq	r3, [r4, #303]	; 0x12f
     2e8:	05130601 	ldreq	r0, [r3, #-1537]	; 0xfffff9ff
     2ec:	be03061f 	mcrlt	6, 0, r0, cr3, cr15, {0}
     2f0:	05054a7f 	streq	r4, [r5, #-2687]	; 0xfffff581
     2f4:	4b4b142f 	blmi	12c53b8 <__bss_end__+0x12bbd50>
     2f8:	4c4b4b4b 	mcrrmi	11, 4, r4, fp, cr11
     2fc:	02040200 	andeq	r0, r4, #0, 4
     300:	0009054c 	andeq	r0, r9, ip, asr #10
     304:	13020402 	movwne	r0, #9218	; 0x2402
     308:	02001505 	andeq	r1, r0, #20971520	; 0x1400000
     30c:	01060204 	tsteq	r6, r4, lsl #4
     310:	02000c05 	andeq	r0, r0, #1280	; 0x500
     314:	4b060204 	blmi	180b2c <__bss_end__+0x1774c4>
     318:	01050204 	tsteq	r5, r4, lsl #4
     31c:	02040200 	andeq	r0, r4, #0, 4
     320:	05016303 	streq	r6, [r1, #-771]	; 0xfffffcfd
     324:	04020005 	streq	r0, [r2], #-5
     328:	02001302 	andeq	r1, r0, #134217728	; 0x8000000
     32c:	00010204 	andeq	r0, r1, r4, lsl #4
     330:	01020402 	tsteq	r2, r2, lsl #8
     334:	02040200 	andeq	r0, r4, #0, 4
     338:	04020001 	streq	r0, [r2], #-1
     33c:	02001302 	andeq	r1, r0, #134217728	; 0x8000000
     340:	01060204 	tsteq	r6, r4, lsl #4
     344:	02000104 	andeq	r0, r0, #4, 2
     348:	1b030204 	blne	c0b60 <__bss_end__+0xb74f8>
     34c:	05020401 	streq	r0, [r2, #-1025]	; 0xfffffbff
     350:	63030601 	movwvs	r0, #13825	; 0x3601
     354:	1305054a 	movwne	r0, #21834	; 0x554a
     358:	13010101 	movwne	r0, #4353	; 0x1101
     35c:	01040106 	tsteq	r4, r6, lsl #2
     360:	1b032d05 	blne	cb77c <__bss_end__+0xc2114>
     364:	06050501 	streq	r0, [r5], -r1, lsl #10
     368:	054a064c 	strbeq	r0, [sl, #-1612]	; 0xfffff9b4
     36c:	0c022f01 	stceq	15, cr2, [r2], {1}
     370:	a1010100 	mrsge	r0, (UNDEF: 17)
     374:	03000001 	movweq	r0, #1
     378:	00009700 	andeq	r9, r0, r0, lsl #14
     37c:	fb010200 	blx	40b86 <__bss_end__+0x3751e>
     380:	01000d0e 	tsteq	r0, lr, lsl #26
     384:	00010101 	andeq	r0, r1, r1, lsl #2
     388:	00010000 	andeq	r0, r1, r0
     38c:	2f2e0100 	svccs	0x002e0100
     390:	00637273 	rsbeq	r7, r3, r3, ror r2
     394:	6d6f682f 	stclvs	8, cr6, [pc, #-188]!	; 2e0 <__code_start__-0x7d20>
     398:	65622f65 	strbvs	r2, [r2, #-3941]!	; 0xfffff09b
     39c:	73632f6e 	cmnvc	r3, #440	; 0x1b8
     3a0:	65303431 	ldrvs	r3, [r0, #-1073]!	; 0xfffffbcf
     3a4:	3173632f 	cmncc	r3, pc, lsr #6
     3a8:	2d653034 	stclcs	0, cr3, [r5, #-208]!	; 0xffffff30
     3ac:	69773232 	ldmdbvs	r7!, {r1, r4, r5, r9, ip, sp}^
     3b0:	696c2f6e 	stmdbvs	ip!, {r1, r2, r3, r5, r6, r8, r9, sl, fp, sp}^
     3b4:	2f697062 	svccs	0x00697062
     3b8:	6c636e69 	stclvs	14, cr6, [r3], #-420	; 0xfffffe5c
     3bc:	00656475 	rsbeq	r6, r5, r5, ror r4
     3c0:	7273752f 	rsbsvc	r7, r3, #197132288	; 0xbc00000
     3c4:	62696c2f 	rsbvs	r6, r9, #12032	; 0x2f00
     3c8:	6363672f 	cmnvs	r3, #12320768	; 0xbc0000
     3cc:	6d72612f 	ldfvse	f6, [r2, #-188]!	; 0xffffff44
     3d0:	6e6f6e2d 	cdpvs	14, 6, cr6, cr15, cr13, {1}
     3d4:	61652d65 	cmnvs	r5, r5, ror #26
     3d8:	392f6962 	stmdbcc	pc!, {r1, r5, r6, r8, fp, sp, lr}	; <UNPREDICTABLE>
     3dc:	312e322e 			; <UNDEFINED> instruction: 0x312e322e
     3e0:	636e692f 	cmnvs	lr, #770048	; 0xbc000
     3e4:	6564756c 	strbvs	r7, [r4, #-1388]!	; 0xfffffa94
     3e8:	70670000 	rsbvc	r0, r7, r0
     3ec:	632e6f69 			; <UNDEFINED> instruction: 0x632e6f69
     3f0:	00000100 	andeq	r0, r0, r0, lsl #2
     3f4:	2e697072 	mcrcs	0, 3, r7, cr9, cr2, {3}
     3f8:	00020068 	andeq	r0, r2, r8, rrx
     3fc:	64747300 	ldrbtvs	r7, [r4], #-768	; 0xfffffd00
     400:	2e746e69 	cdpcs	14, 7, cr6, cr4, cr9, {3}
     404:	00030068 	andeq	r0, r3, r8, rrx
     408:	69706700 	ldmdbvs	r0!, {r8, r9, sl, sp, lr}^
     40c:	00682e6f 	rsbeq	r2, r8, pc, ror #28
     410:	00000002 	andeq	r0, r0, r2
     414:	05001d05 	streq	r1, [r0, #-3333]	; 0xfffff2fb
     418:	0082bc02 	addeq	fp, r2, r2, lsl #24
     41c:	01180300 	tsteq	r8, r0, lsl #6
     420:	05130505 	ldreq	r0, [r3, #-1285]	; 0xfffffafb
     424:	66130601 	ldrvs	r0, [r3], -r1, lsl #12
     428:	4e063c05 	cdpmi	12, 0, cr3, cr6, cr5, {0}
     42c:	05050106 	streq	r0, [r5, #-262]	; 0xfffffefa
     430:	0a056706 	beq	15a050 <__bss_end__+0x1509e8>
     434:	08050106 	stmdaeq	r5, {r1, r2, r8}
     438:	0605052e 	streq	r0, [r5], -lr, lsr #10
     43c:	0608054d 	streq	r0, [r8], -sp, asr #10
     440:	06050501 	streq	r0, [r5], -r1, lsl #10
     444:	0513134d 	ldreq	r1, [r3, #-845]	; 0xfffffcb3
     448:	0501063e 	streq	r0, [r1, #-1598]	; 0xfffff9c2
     44c:	2e056639 	mcrcs	6, 0, r6, cr5, cr9, {1}
     450:	0605052e 	streq	r0, [r5], -lr, lsr #10
     454:	0624054b 	strteq	r0, [r4], -fp, asr #10
     458:	4a120501 	bmi	481864 <__bss_end__+0x4781fc>
     45c:	2f060505 	svccs	0x00060505
     460:	01061b05 	tsteq	r6, r5, lsl #22
     464:	054a3005 	strbeq	r3, [sl, #-5]
     468:	064b0605 	strbeq	r0, [fp], -r5, lsl #12
     46c:	4c01052e 	cfstr32mi	mvfx0, [r1], {46}	; 0x2e
     470:	50062405 	andpl	r2, r6, r5, lsl #8
     474:	05050106 	streq	r0, [r5, #-262]	; 0xfffffefa
     478:	01053206 	tsteq	r5, r6, lsl #4
     47c:	20054b06 	andcs	r4, r5, r6, lsl #22
     480:	01063106 	tsteq	r6, r6, lsl #2
     484:	4e060505 	cfsh32mi	mvfx0, mvfx6, #5
     488:	01060a05 	tsteq	r6, r5, lsl #20
     48c:	052e0805 	streq	r0, [lr, #-2053]!	; 0xfffff7fb
     490:	054d0605 	strbeq	r0, [sp, #-1541]	; 0xfffff9fb
     494:	05830601 	streq	r0, [r3, #1537]	; 0x601
     498:	064d0621 	strbeq	r0, [sp], -r1, lsr #12
     49c:	06050501 	streq	r0, [r5], -r1, lsl #10
     4a0:	060a054e 	streq	r0, [sl], -lr, asr #10
     4a4:	2e080501 	cfsh32cs	mvfx0, mvfx8, #1
     4a8:	4d060505 	cfstr32mi	mvfx0, [r6, #-20]	; 0xffffffec
     4ac:	83060105 	movwhi	r0, #24837	; 0x6105
     4b0:	4d062b05 	vstrmi	d2, [r6, #-20]	; 0xffffffec
     4b4:	05050106 	streq	r0, [r5, #-262]	; 0xfffffefa
     4b8:	07052f06 	streq	r2, [r5, -r6, lsl #30]
     4bc:	08050106 	stmdaeq	r5, {r1, r2, r8}
     4c0:	2e064b06 	vmlacs.f64	d4, d6, d6
     4c4:	01053006 	tsteq	r5, r6
     4c8:	23052f06 	movwcs	r2, #24326	; 0x5f06
     4cc:	01063506 	tsteq	r6, r6, lsl #10
     4d0:	31060505 	tstcc	r6, r5, lsl #10
     4d4:	4b060105 	blmi	1808f0 <__bss_end__+0x177288>
     4d8:	31061d05 	tstcc	r6, r5, lsl #26
     4dc:	05050106 	streq	r0, [r5, #-262]	; 0xfffffefa
     4e0:	05164b06 	ldreq	r4, [r6, #-2822]	; 0xfffff4fa
     4e4:	0501060a 	streq	r0, [r1, #-1546]	; 0xfffff9f6
     4e8:	05052e08 	streq	r2, [r5, #-3592]	; 0xfffff1f8
     4ec:	0a054d06 	beq	15390c <__bss_end__+0x14a2a4>
     4f0:	1b050106 	blne	140910 <__bss_end__+0x1372a8>
     4f4:	2e07054a 	cfsh32cs	mvfx0, mvfx7, #42
     4f8:	30060505 	andcc	r0, r6, r5, lsl #10
     4fc:	30050204 	andcc	r0, r5, r4, lsl #4
     500:	0100c303 	tsteq	r0, r3, lsl #6
     504:	0c050104 	stfeqs	f0, [r5], {4}
     508:	7fbd0306 	svcvc	0x00bd0306
     50c:	2a100501 	bcs	401918 <__bss_end__+0x3f82b0>
     510:	02330105 	eorseq	r0, r3, #1073741825	; 0x40000001
     514:	01010004 	tsteq	r1, r4
     518:	000000df 	ldrdeq	r0, [r0], -pc	; <UNPREDICTABLE>
     51c:	00ad0003 	adceq	r0, sp, r3
     520:	01020000 	mrseq	r0, (UNDEF: 2)
     524:	000d0efb 	strdeq	r0, [sp], -fp
     528:	01010101 	tsteq	r1, r1, lsl #2
     52c:	01000000 	mrseq	r0, (UNDEF: 0)
     530:	2e010000 	cdpcs	0, 0, cr0, cr1, cr0, {0}
     534:	62696c2f 	rsbvs	r6, r9, #12032	; 0x2f00
     538:	752f0063 	strvc	r0, [pc, #-99]!	; 4dd <__code_start__-0x7b23>
     53c:	6c2f7273 	sfmvs	f7, 4, [pc], #-460	; 378 <__code_start__-0x7c88>
     540:	672f6269 	strvs	r6, [pc, -r9, ror #4]!
     544:	612f6363 			; <UNDEFINED> instruction: 0x612f6363
     548:	6e2d6d72 	mcrvs	13, 1, r6, cr13, cr2, {3}
     54c:	2d656e6f 	stclcs	14, cr6, [r5, #-444]!	; 0xfffffe44
     550:	69626165 	stmdbvs	r2!, {r0, r2, r5, r6, r8, sp, lr}^
     554:	322e392f 	eorcc	r3, lr, #770048	; 0xbc000
     558:	692f312e 	stmdbvs	pc!, {r1, r2, r3, r5, r8, ip, sp}	; <UNPREDICTABLE>
     55c:	756c636e 	strbvc	r6, [ip, #-878]!	; 0xfffffc92
     560:	2f006564 	svccs	0x00006564
     564:	656d6f68 	strbvs	r6, [sp, #-3944]!	; 0xfffff098
     568:	6e65622f 	cdpvs	2, 6, cr6, cr5, cr15, {1}
     56c:	3173632f 	cmncc	r3, pc, lsr #6
     570:	2f653034 	svccs	0x00653034
     574:	34317363 	ldrtcc	r7, [r1], #-867	; 0xfffffc9d
     578:	322d6530 	eorcc	r6, sp, #48, 10	; 0xc000000
     57c:	6e697732 	mcrvs	7, 3, r7, cr9, cr2, {1}
     580:	62696c2f 	rsbvs	r6, r9, #12032	; 0x2f00
     584:	692f6970 	stmdbvs	pc!, {r4, r5, r6, r8, fp, sp, lr}	; <UNPREDICTABLE>
     588:	756c636e 	strbvc	r6, [ip, #-878]!	; 0xfffffc92
     58c:	00006564 	andeq	r6, r0, r4, ror #10
     590:	6e697270 	mcrvs	2, 3, r7, cr9, cr0, {3}
     594:	632e6b74 			; <UNDEFINED> instruction: 0x632e6b74
     598:	00000100 	andeq	r0, r0, r0, lsl #2
     59c:	61647473 	smcvs	18243	; 0x4743
     5a0:	682e6772 	stmdavs	lr!, {r1, r4, r5, r6, r8, r9, sl, sp, lr}
     5a4:	00000200 	andeq	r0, r0, r0, lsl #4
     5a8:	2e697072 	mcrcs	0, 3, r7, cr9, cr2, {3}
     5ac:	00030068 	andeq	r0, r3, r8, rrx
     5b0:	75623c00 	strbvc	r3, [r2, #-3072]!	; 0xfffff400
     5b4:	2d746c69 	ldclcs	12, cr6, [r4, #-420]!	; 0xfffffe5c
     5b8:	003e6e69 	eorseq	r6, lr, r9, ror #28
     5bc:	76000000 	strvc	r0, [r0], -r0
     5c0:	72702d61 	rsbsvc	r2, r0, #6208	; 0x1840
     5c4:	6b746e69 	blvs	1d1bf70 <__bss_end__+0x1d12908>
     5c8:	0100682e 	tsteq	r0, lr, lsr #16
     5cc:	05000000 	streq	r0, [r0, #-0]
     5d0:	02050022 	andeq	r0, r5, #34	; 0x22
     5d4:	00008400 	andeq	r8, r0, r0, lsl #8
     5d8:	05010617 	streq	r0, [r1, #-1559]	; 0xfffff9e9
     5dc:	13680605 	cmnne	r8, #5242880	; 0x500000
     5e0:	4b090514 	blmi	241a38 <__bss_end__+0x2383d0>
     5e4:	01061205 	tsteq	r6, r5, lsl #4
     5e8:	bb060505 	bllt	181a04 <__bss_end__+0x17839c>
     5ec:	06660616 			; <UNDEFINED> instruction: 0x06660616
     5f0:	06010534 			; <UNDEFINED> instruction: 0x06010534
     5f4:	08026613 	stmdaeq	r2, {r0, r1, r4, r9, sl, sp, lr}
     5f8:	a7010100 	strge	r0, [r1, -r0, lsl #2]
     5fc:	03000000 	movweq	r0, #0
     600:	00005900 	andeq	r5, r0, r0, lsl #18
     604:	fb010200 	blx	40e0e <__bss_end__+0x377a6>
     608:	01000d0e 	tsteq	r0, lr, lsl #26
     60c:	00010101 	andeq	r0, r1, r1, lsl #2
     610:	00010000 	andeq	r0, r1, r0
     614:	2f2e0100 	svccs	0x002e0100
     618:	6362696c 	cmnvs	r2, #108, 18	; 0x1b0000
     61c:	6f682f00 	svcvs	0x00682f00
     620:	622f656d 	eorvs	r6, pc, #457179136	; 0x1b400000
     624:	632f6e65 			; <UNDEFINED> instruction: 0x632f6e65
     628:	30343173 	eorscc	r3, r4, r3, ror r1
     62c:	73632f65 	cmnvc	r3, #404	; 0x194
     630:	65303431 	ldrvs	r3, [r0, #-1073]!	; 0xfffffbcf
     634:	7732322d 	ldrvc	r3, [r2, -sp, lsr #4]!
     638:	6c2f6e69 	stcvs	14, cr6, [pc], #-420	; 49c <__code_start__-0x7b64>
     63c:	69706269 	ldmdbvs	r0!, {r0, r3, r5, r6, r9, sp, lr}^
     640:	636e692f 	cmnvs	lr, #770048	; 0xbc000
     644:	6564756c 	strbvs	r7, [r4, #-1388]!	; 0xfffffa94
     648:	75700000 	ldrbvc	r0, [r0, #-0]!
     64c:	632e6b74 			; <UNDEFINED> instruction: 0x632e6b74
     650:	00000100 	andeq	r0, r0, r0, lsl #2
     654:	2e697072 	mcrcs	0, 3, r7, cr9, cr2, {3}
     658:	00020068 	andeq	r0, r2, r8, rrx
     65c:	22050000 	andcs	r0, r5, #0
     660:	58020500 	stmdapl	r2, {r8, sl}
     664:	15000084 	strne	r0, [r0, #-132]	; 0xffffff7c
     668:	05050106 	streq	r0, [r5, #-262]	; 0xfffffefa
     66c:	0b054b06 	bleq	15328c <__bss_end__+0x149c24>
     670:	01040200 	mrseq	r0, R12_usr
     674:	00050501 	andeq	r0, r5, r1, lsl #10
     678:	06010402 	streq	r0, [r1], -r2, lsl #8
     67c:	0009052e 	andeq	r0, r9, lr, lsr #10
     680:	06020402 	streq	r0, [r2], -r2, lsl #8
     684:	000f054b 	andeq	r0, pc, fp, asr #10
     688:	65020402 	strvs	r0, [r2, #-1026]	; 0xfffffbfe
     68c:	02001005 	andeq	r1, r0, #5
     690:	01060204 	tsteq	r6, r4, lsl #4
     694:	02040200 	andeq	r0, r4, #0, 4
     698:	0605052e 	streq	r0, [r5], -lr, lsr #10
     69c:	06010532 			; <UNDEFINED> instruction: 0x06010532
     6a0:	00060213 	andeq	r0, r6, r3, lsl r2
     6a4:	009a0101 	addseq	r0, sl, r1, lsl #2
     6a8:	00030000 	andeq	r0, r3, r0
     6ac:	0000005c 	andeq	r0, r0, ip, asr r0
     6b0:	0efb0102 	cdpeq	1, 15, cr0, cr11, cr2, {0}
     6b4:	0101000d 	tsteq	r1, sp
     6b8:	00000101 	andeq	r0, r0, r1, lsl #2
     6bc:	00000100 	andeq	r0, r0, r0, lsl #2
     6c0:	6c2f2e01 	stcvs	14, cr2, [pc], #-4	; 6c4 <__code_start__-0x793c>
     6c4:	00636269 	rsbeq	r6, r3, r9, ror #4
     6c8:	6d6f682f 	stclvs	8, cr6, [pc, #-188]!	; 614 <__code_start__-0x79ec>
     6cc:	65622f65 	strbvs	r2, [r2, #-3941]!	; 0xfffff09b
     6d0:	73632f6e 	cmnvc	r3, #440	; 0x1b8
     6d4:	65303431 	ldrvs	r3, [r0, #-1073]!	; 0xfffffbcf
     6d8:	3173632f 	cmncc	r3, pc, lsr #6
     6dc:	2d653034 	stclcs	0, cr3, [r5, #-208]!	; 0xffffff30
     6e0:	69773232 	ldmdbvs	r7!, {r1, r4, r5, r9, ip, sp}^
     6e4:	696c2f6e 	stmdbvs	ip!, {r1, r2, r3, r5, r6, r8, r9, sl, fp, sp}^
     6e8:	2f697062 	svccs	0x00697062
     6ec:	6c636e69 	stclvs	14, cr6, [r3], #-420	; 0xfffffe5c
     6f0:	00656475 	rsbeq	r6, r5, r5, ror r4
     6f4:	74757000 	ldrbtvc	r7, [r5], #-0
     6f8:	72616863 	rsbvc	r6, r1, #6488064	; 0x630000
     6fc:	0100632e 	tsteq	r0, lr, lsr #6
     700:	70720000 	rsbsvc	r0, r2, r0
     704:	00682e69 	rsbeq	r2, r8, r9, ror #28
     708:	00000002 	andeq	r0, r0, r2
     70c:	05002405 	streq	r2, [r0, #-1029]	; 0xfffffbfb
     710:	00848c02 	addeq	r8, r4, r2, lsl #24
     714:	01061400 	tsteq	r6, r0, lsl #8
     718:	4a062605 	bmi	189f34 <__bss_end__+0x1808cc>
     71c:	052e3405 	streq	r3, [lr, #-1029]!	; 0xfffffbfb
     720:	05010601 	streq	r0, [r1, #-1537]	; 0xfffff9ff
     724:	054f061b 	strbeq	r0, [pc, #-1563]	; 111 <__code_start__-0x7eef>
     728:	11051305 	tstne	r5, r5, lsl #6
     72c:	01050106 	tsteq	r5, r6, lsl #2
     730:	06230567 	strteq	r0, [r3], -r7, ror #10
     734:	13050567 	movwne	r0, #21863	; 0x5567
     738:	01061105 	tsteq	r6, r5, lsl #2
     73c:	024b0105 	subeq	r0, fp, #1073741825	; 0x40000001
     740:	01010004 	tsteq	r1, r4
     744:	00000081 	andeq	r0, r0, r1, lsl #1
     748:	00660003 	rsbeq	r0, r6, r3
     74c:	01020000 	mrseq	r0, (UNDEF: 2)
     750:	000d0efb 	strdeq	r0, [sp], -fp
     754:	01010101 	tsteq	r1, r1, lsl #2
     758:	01000000 	mrseq	r0, (UNDEF: 0)
     75c:	2e010000 	cdpcs	0, 0, cr0, cr1, cr0, {0}
     760:	6174732f 	cmnvs	r4, pc, lsr #6
     764:	732d6666 			; <UNDEFINED> instruction: 0x732d6666
     768:	2f006372 	svccs	0x00006372
     76c:	656d6f68 	strbvs	r6, [sp, #-3944]!	; 0xfffff098
     770:	6e65622f 	cdpvs	2, 6, cr6, cr5, cr15, {1}
     774:	3173632f 	cmncc	r3, pc, lsr #6
     778:	2f653034 	svccs	0x00653034
     77c:	34317363 	ldrtcc	r7, [r1], #-867	; 0xfffffc9d
     780:	322d6530 	eorcc	r6, sp, #48, 10	; 0xc000000
     784:	6e697732 	mcrvs	7, 3, r7, cr9, cr2, {1}
     788:	62696c2f 	rsbvs	r6, r9, #12032	; 0x2f00
     78c:	692f6970 	stmdbvs	pc!, {r4, r5, r6, r8, fp, sp, lr}	; <UNPREDICTABLE>
     790:	756c636e 	strbvc	r6, [ip, #-878]!	; 0xfffffc92
     794:	00006564 	andeq	r6, r0, r4, ror #10
     798:	61656c63 	cmnvs	r5, r3, ror #24
     79c:	65722d6e 	ldrbvs	r2, [r2, #-3438]!	; 0xfffff292
     7a0:	746f6f62 	strbtvc	r6, [pc], #-3938	; 7a8 <__code_start__-0x7858>
     7a4:	0100632e 	tsteq	r0, lr, lsr #6
     7a8:	70720000 	rsbsvc	r0, r2, r0
     7ac:	00682e69 	rsbeq	r2, r8, r9, ror #28
     7b0:	00000002 	andeq	r0, r0, r2
     7b4:	05001905 	streq	r1, [r0, #-2309]	; 0xfffff6fb
     7b8:	0084c802 	addeq	ip, r4, r2, lsl #16
     7bc:	05051500 	streq	r1, [r5, #-1280]	; 0xfffffb00
     7c0:	4b2f832f 	blmi	be1484 <__bss_end__+0xbd7e1c>
     7c4:	01000602 	tsteq	r0, r2, lsl #12
     7c8:	00009b01 	andeq	r9, r0, r1, lsl #22
     7cc:	60000300 	andvs	r0, r0, r0, lsl #6
     7d0:	02000000 	andeq	r0, r0, #0
     7d4:	0d0efb01 	vstreq	d15, [lr, #-4]
     7d8:	01010100 	mrseq	r0, (UNDEF: 17)
     7dc:	00000001 	andeq	r0, r0, r1
     7e0:	01000001 	tsteq	r0, r1
     7e4:	74732f2e 	ldrbtvc	r2, [r3], #-3886	; 0xfffff0d2
     7e8:	2d666661 	stclcs	6, cr6, [r6, #-388]!	; 0xfffffe7c
     7ec:	00637273 	rsbeq	r7, r3, r3, ror r2
     7f0:	6d6f682f 	stclvs	8, cr6, [pc, #-188]!	; 73c <__code_start__-0x78c4>
     7f4:	65622f65 	strbvs	r2, [r2, #-3941]!	; 0xfffff09b
     7f8:	73632f6e 	cmnvc	r3, #440	; 0x1b8
     7fc:	65303431 	ldrvs	r3, [r0, #-1073]!	; 0xfffffbcf
     800:	3173632f 	cmncc	r3, pc, lsr #6
     804:	2d653034 	stclcs	0, cr3, [r5, #-208]!	; 0xffffff30
     808:	69773232 	ldmdbvs	r7!, {r1, r4, r5, r9, ip, sp}^
     80c:	696c2f6e 	stmdbvs	ip!, {r1, r2, r3, r5, r6, r8, r9, sl, fp, sp}^
     810:	2f697062 	svccs	0x00697062
     814:	6c636e69 	stclvs	14, cr6, [r3], #-420	; 0xfffffe5c
     818:	00656475 	rsbeq	r6, r5, r5, ror r4
     81c:	74736300 	ldrbtvc	r6, [r3], #-768	; 0xfffffd00
     820:	2e747261 	cdpcs	2, 7, cr7, cr4, cr1, {3}
     824:	00010063 	andeq	r0, r1, r3, rrx
     828:	69707200 	ldmdbvs	r0!, {r9, ip, sp, lr}^
     82c:	0200682e 	andeq	r6, r0, #3014656	; 0x2e0000
     830:	05000000 	streq	r0, [r0, #-0]
     834:	02050010 	andeq	r0, r5, #16
     838:	000084f4 	strdeq	r8, [r0], -r4
     83c:	2f050515 	svccs	0x00050515
     840:	05130205 	ldreq	r0, [r3, #-517]	; 0xfffffdfb
     844:	13301405 	teqne	r0, #83886080	; 0x5000000
     848:	060a0514 			; <UNDEFINED> instruction: 0x060a0514
     84c:	0531060f 	ldreq	r0, [r1, #-1551]!	; 0xfffff9f1
     850:	10054b09 	andne	r4, r5, r9, lsl #22
     854:	054a0106 	strbeq	r0, [sl, #-262]	; 0xfffffefa
     858:	32300605 	eorscc	r0, r0, #5242880	; 0x500000
     85c:	144a0101 	strbne	r0, [sl], #-257	; 0xfffffeff
     860:	022f0205 	eoreq	r0, pc, #1342177280	; 0x50000000
     864:	01010006 	tsteq	r1, r6
     868:	000000cf 	andeq	r0, r0, pc, asr #1
     86c:	00600003 	rsbeq	r0, r0, r3
     870:	01020000 	mrseq	r0, (UNDEF: 2)
     874:	000d0efb 	strdeq	r0, [sp], -fp
     878:	01010101 	tsteq	r1, r1, lsl #2
     87c:	01000000 	mrseq	r0, (UNDEF: 0)
     880:	2e010000 	cdpcs	0, 0, cr0, cr1, cr0, {0}
     884:	6174732f 	cmnvs	r4, pc, lsr #6
     888:	732d6666 			; <UNDEFINED> instruction: 0x732d6666
     88c:	2f006372 	svccs	0x00006372
     890:	656d6f68 	strbvs	r6, [sp, #-3944]!	; 0xfffff098
     894:	6e65622f 	cdpvs	2, 6, cr6, cr5, cr15, {1}
     898:	3173632f 	cmncc	r3, pc, lsr #6
     89c:	2f653034 	svccs	0x00653034
     8a0:	34317363 	ldrtcc	r7, [r1], #-867	; 0xfffffc9d
     8a4:	322d6530 	eorcc	r6, sp, #48, 10	; 0xc000000
     8a8:	6e697732 	mcrvs	7, 3, r7, cr9, cr2, {1}
     8ac:	62696c2f 	rsbvs	r6, r9, #12032	; 0x2f00
     8b0:	692f6970 	stmdbvs	pc!, {r4, r5, r6, r8, fp, sp, lr}	; <UNPREDICTABLE>
     8b4:	756c636e 	strbvc	r6, [ip, #-878]!	; 0xfffffc92
     8b8:	00006564 	andeq	r6, r0, r4, ror #10
     8bc:	6f626572 	svcvs	0x00626572
     8c0:	632e746f 			; <UNDEFINED> instruction: 0x632e746f
     8c4:	00000100 	andeq	r0, r0, r0, lsl #2
     8c8:	2e697072 	mcrcs	0, 3, r7, cr9, cr2, {3}
     8cc:	00020068 	andeq	r0, r2, r8, rrx
     8d0:	19050000 	stmdbne	r5, {}	; <UNPREDICTABLE>
     8d4:	30020500 	andcc	r0, r2, r0, lsl #10
     8d8:	03000085 	movweq	r0, #133	; 0x85
     8dc:	0505010d 	streq	r0, [r5, #-269]	; 0xfffffef3
     8e0:	05311313 	ldreq	r1, [r1, #-787]!	; 0xfffffced
     8e4:	05010613 	streq	r0, [r1, #-1555]	; 0xfffff9ed
     8e8:	1b052f01 	blne	14c4f4 <__bss_end__+0x142e8c>
     8ec:	05058506 	streq	r8, [r5, #-1286]	; 0xfffffafa
     8f0:	09051413 	stmdbeq	r5, {r0, r1, r4, sl, ip}
     8f4:	0616052f 	ldreq	r0, [r6], -pc, lsr #10
     8f8:	2e0e0501 	cfsh32cs	mvfx0, mvfx14, #1
     8fc:	2f060505 	svccs	0x00060505
     900:	2f060105 	svccs	0x00060105
     904:	30061705 	andcc	r1, r6, r5, lsl #14
     908:	052f0505 	streq	r0, [pc, #-1285]!	; 40b <__code_start__-0x7bf5>
     90c:	05010608 	streq	r0, [r1, #-1544]	; 0xfffff9f8
     910:	05052e07 	streq	r2, [r5, #-3591]	; 0xfffff1f9
     914:	2f305006 	svccs	0x00305006
     918:	1313134d 	tstne	r3, #872415233	; 0x34000001
     91c:	02006715 	andeq	r6, r0, #5505024	; 0x540000
     920:	05670104 	strbeq	r0, [r7, #-260]!	; 0xfffffefc
     924:	0402000d 	streq	r0, [r2], #-13
     928:	0a050101 	beq	140d34 <__bss_end__+0x1376cc>
     92c:	01040200 	mrseq	r0, R12_usr
     930:	03090501 	movweq	r0, #38145	; 0x9501
     934:	0c022e6d 	stceq	14, cr2, [r2], {109}	; 0x6d
     938:	8c010100 	stfhis	f0, [r1], {-0}
     93c:	03000000 	movweq	r0, #0
     940:	00007000 	andeq	r7, r0, r0
     944:	fb010200 	blx	4114e <__bss_end__+0x37ae6>
     948:	01000d0e 	tsteq	r0, lr, lsl #26
     94c:	00010101 	andeq	r0, r1, r1, lsl #2
     950:	00010000 	andeq	r0, r1, r0
     954:	2f2e0100 	svccs	0x002e0100
     958:	66617473 			; <UNDEFINED> instruction: 0x66617473
     95c:	72732d66 	rsbsvc	r2, r3, #6528	; 0x1980
     960:	682f0063 	stmdavs	pc!, {r0, r1, r5, r6}	; <UNPREDICTABLE>
     964:	2f656d6f 	svccs	0x00656d6f
     968:	2f6e6562 	svccs	0x006e6562
     96c:	34317363 	ldrtcc	r7, [r1], #-867	; 0xfffffc9d
     970:	632f6530 			; <UNDEFINED> instruction: 0x632f6530
     974:	30343173 	eorscc	r3, r4, r3, ror r1
     978:	32322d65 	eorscc	r2, r2, #6464	; 0x1940
     97c:	2f6e6977 	svccs	0x006e6977
     980:	7062696c 	rsbvc	r6, r2, ip, ror #18
     984:	6e692f69 	cdpvs	15, 6, cr2, cr9, cr9, {3}
     988:	64756c63 	ldrbtvs	r6, [r5], #-3171	; 0xfffff39d
     98c:	64000065 	strvs	r0, [r0], #-101	; 0xffffff9b
     990:	75616665 	strbvc	r6, [r1, #-1637]!	; 0xfffff99b
     994:	722d746c 	eorvc	r7, sp, #108, 8	; 0x6c000000
     998:	6f6f6265 	svcvs	0x006f6265
     99c:	61632d74 	smcvs	13012	; 0x32d4
     9a0:	756f6c6c 	strbvc	r6, [pc, #-3180]!	; fffffd3c <__bss_end__+0xffff66d4>
     9a4:	00632e74 	rsbeq	r2, r3, r4, ror lr
     9a8:	72000001 	andvc	r0, r0, #1
     9ac:	682e6970 	stmdavs	lr!, {r4, r5, r6, r8, fp, sp, lr}
     9b0:	00000200 	andeq	r0, r0, r0, lsl #4
     9b4:	001b0500 	andseq	r0, fp, r0, lsl #10
     9b8:	85b00205 	ldrhi	r0, [r0, #517]!	; 0x205
     9bc:	05140000 	ldreq	r0, [r4, #-0]
     9c0:	0105011c 	tsteq	r5, ip, lsl r1
     9c4:	02020106 	andeq	r0, r2, #-2147483647	; 0x80000001
     9c8:	7f010100 	svcvc	0x00010100
     9cc:	03000000 	movweq	r0, #0
     9d0:	00006700 	andeq	r6, r0, r0, lsl #14
     9d4:	fb010200 	blx	411de <__bss_end__+0x37b76>
     9d8:	01000d0e 	tsteq	r0, lr, lsl #26
     9dc:	00010101 	andeq	r0, r1, r1, lsl #2
     9e0:	00010000 	andeq	r0, r1, r0
     9e4:	2f2e0100 	svccs	0x002e0100
     9e8:	66617473 			; <UNDEFINED> instruction: 0x66617473
     9ec:	72732d66 	rsbsvc	r2, r3, #6528	; 0x1980
     9f0:	682f0063 	stmdavs	pc!, {r0, r1, r5, r6}	; <UNPREDICTABLE>
     9f4:	2f656d6f 	svccs	0x00656d6f
     9f8:	2f6e6562 	svccs	0x006e6562
     9fc:	34317363 	ldrtcc	r7, [r1], #-867	; 0xfffffc9d
     a00:	632f6530 			; <UNDEFINED> instruction: 0x632f6530
     a04:	30343173 	eorscc	r3, r4, r3, ror r1
     a08:	32322d65 	eorscc	r2, r2, #6464	; 0x1940
     a0c:	2f6e6977 	svccs	0x006e6977
     a10:	7062696c 	rsbvc	r6, r2, ip, ror #18
     a14:	6e692f69 	cdpvs	15, 6, cr2, cr9, cr9, {3}
     a18:	64756c63 	ldrbtvs	r6, [r5], #-3171	; 0xfffff39d
     a1c:	63000065 	movwvs	r0, #101	; 0x65
     a20:	6f747375 	svcvs	0x00747375
     a24:	6f6c2d6d 	svcvs	0x006c2d6d
     a28:	72656461 	rsbvc	r6, r5, #1627389952	; 0x61000000
     a2c:	0100632e 	tsteq	r0, lr, lsr #6
     a30:	70720000 	rsbsvc	r0, r2, r0
     a34:	00682e69 	rsbeq	r2, r8, r9, ror #28
     a38:	00000002 	andeq	r0, r0, r2
     a3c:	05001a05 	streq	r1, [r0, #-2565]	; 0xfffff5fb
     a40:	0085b402 	addeq	fp, r5, r2, lsl #8
     a44:	01051500 	tsteq	r5, r0, lsl #10
     a48:	00020214 	andeq	r0, r2, r4, lsl r2
     a4c:	00d60101 	sbcseq	r0, r6, r1, lsl #2
     a50:	00030000 	andeq	r0, r3, r0
     a54:	0000005f 	andeq	r0, r0, pc, asr r0
     a58:	0efb0102 	cdpeq	1, 15, cr0, cr11, cr2, {0}
     a5c:	0101000d 	tsteq	r1, sp
     a60:	00000101 	andeq	r0, r0, r1, lsl #2
     a64:	00000100 	andeq	r0, r0, r0, lsl #2
     a68:	732f2e01 			; <UNDEFINED> instruction: 0x732f2e01
     a6c:	66666174 			; <UNDEFINED> instruction: 0x66666174
     a70:	6372732d 	cmnvs	r2, #-1275068416	; 0xb4000000
     a74:	6f682f00 	svcvs	0x00682f00
     a78:	622f656d 	eorvs	r6, pc, #457179136	; 0x1b400000
     a7c:	632f6e65 			; <UNDEFINED> instruction: 0x632f6e65
     a80:	30343173 	eorscc	r3, r4, r3, ror r1
     a84:	73632f65 	cmnvc	r3, #404	; 0x194
     a88:	65303431 	ldrvs	r3, [r0, #-1073]!	; 0xfffffbcf
     a8c:	7732322d 	ldrvc	r3, [r2, -sp, lsr #4]!
     a90:	6c2f6e69 	stcvs	14, cr6, [pc], #-420	; 8f4 <__code_start__-0x770c>
     a94:	69706269 	ldmdbvs	r0!, {r0, r3, r5, r6, r9, sp, lr}^
     a98:	636e692f 	cmnvs	lr, #770048	; 0xbc000
     a9c:	6564756c 	strbvs	r7, [r4, #-1388]!	; 0xfffffa94
     aa0:	69740000 	ldmdbvs	r4!, {}^	; <UNPREDICTABLE>
     aa4:	2e72656d 	cdpcs	5, 7, cr6, cr2, cr13, {3}
     aa8:	00010063 	andeq	r0, r1, r3, rrx
     aac:	69707200 	ldmdbvs	r0!, {r9, ip, sp, lr}^
     ab0:	0200682e 	andeq	r6, r0, #3014656	; 0x2e0000
     ab4:	05000000 	streq	r0, [r0, #-0]
     ab8:	02050023 	andeq	r0, r5, #35	; 0x23
     abc:	000085b8 			; <UNDEFINED> instruction: 0x000085b8
     ac0:	2f050515 	svccs	0x00050515
     ac4:	01060c05 	tsteq	r6, r5, lsl #24
     ac8:	054b0105 	strbeq	r0, [fp, #-261]	; 0xfffffefb
     acc:	054d061f 	strbeq	r0, [sp, #-1567]	; 0xfffff9e1
     ad0:	052f3105 	streq	r3, [pc, #-261]!	; 9d3 <__code_start__-0x762d>
     ad4:	05010612 	streq	r0, [r1, #-1554]	; 0xfffff9ee
     ad8:	2f4b0605 	svccs	0x004b0605
     adc:	13060105 	movwne	r0, #24837	; 0x6105
     ae0:	4c061c05 	stcmi	12, cr1, [r6], {5}
     ae4:	05050106 	streq	r0, [r5, #-262]	; 0xfffffefa
     ae8:	13054b06 	movwne	r4, #23302	; 0x5b06
     aec:	052e0106 	streq	r0, [lr, #-262]!	; 0xfffffefa
     af0:	052f0605 	streq	r0, [pc, #-1541]!	; 4f3 <__code_start__-0x7b0d>
     af4:	17051309 	strne	r1, [r5, -r9, lsl #6]
     af8:	09050106 	stmdbeq	r5, {r1, r2, r8}
     afc:	11052f06 	tstne	r5, r6, lsl #30
     b00:	0c050106 	stfeqs	f0, [r5], {6}
     b04:	061c052e 	ldreq	r0, [ip], -lr, lsr #10
     b08:	0501066b 	streq	r0, [r1, #-1643]	; 0xfffff995
     b0c:	062f0605 	strteq	r0, [pc], -r5, lsl #12
     b10:	4b01054a 	blmi	42040 <__bss_end__+0x389d8>
     b14:	2f061e05 	svccs	0x00061e05
     b18:	05050106 	streq	r0, [r5, #-262]	; 0xfffffefa
     b1c:	4a062f06 	bmi	18c73c <__bss_end__+0x1830d4>
     b20:	024b0105 	subeq	r0, fp, #1073741825	; 0x40000001
     b24:	01010002 	tsteq	r1, r2
     b28:	000001b0 			; <UNDEFINED> instruction: 0x000001b0
     b2c:	00620003 	rsbeq	r0, r2, r3
     b30:	01020000 	mrseq	r0, (UNDEF: 2)
     b34:	000d0efb 	strdeq	r0, [sp], -fp
     b38:	01010101 	tsteq	r1, r1, lsl #2
     b3c:	01000000 	mrseq	r0, (UNDEF: 0)
     b40:	2e010000 	cdpcs	0, 0, cr0, cr1, cr0, {0}
     b44:	6372732f 	cmnvs	r2, #-1140850688	; 0xbc000000
     b48:	6f682f00 	svcvs	0x00682f00
     b4c:	622f656d 	eorvs	r6, pc, #457179136	; 0x1b400000
     b50:	632f6e65 			; <UNDEFINED> instruction: 0x632f6e65
     b54:	30343173 	eorscc	r3, r4, r3, ror r1
     b58:	73632f65 	cmnvc	r3, #404	; 0x194
     b5c:	65303431 	ldrvs	r3, [r0, #-1073]!	; 0xfffffbcf
     b60:	7732322d 	ldrvc	r3, [r2, -sp, lsr #4]!
     b64:	6c2f6e69 	stcvs	14, cr6, [pc], #-420	; 9c8 <__code_start__-0x7638>
     b68:	69706269 	ldmdbvs	r0!, {r0, r3, r5, r6, r9, sp, lr}^
     b6c:	636e692f 	cmnvs	lr, #770048	; 0xbc000
     b70:	6564756c 	strbvs	r7, [r4, #-1388]!	; 0xfffffa94
     b74:	61750000 	cmnvs	r5, r0
     b78:	632e7472 			; <UNDEFINED> instruction: 0x632e7472
     b7c:	00000100 	andeq	r0, r0, r0, lsl #2
     b80:	2e697072 	mcrcs	0, 3, r7, cr9, cr2, {3}
     b84:	00020068 	andeq	r0, r2, r8, rrx
     b88:	69706700 	ldmdbvs	r0!, {r8, r9, sl, sp, lr}^
     b8c:	00682e6f 	rsbeq	r2, r8, pc, ror #28
     b90:	00000002 	andeq	r0, r0, r2
     b94:	05002005 	streq	r2, [r0, #-5]
     b98:	00863c02 	addeq	r3, r6, r2, lsl #24
     b9c:	00d00300 	sbcseq	r0, r0, r0, lsl #6
     ba0:	2f050501 	svccs	0x00050501
     ba4:	060f052f 	streq	r0, [pc], -pc, lsr #10
     ba8:	4a090501 	bmi	241fb4 <__bss_end__+0x23894c>
     bac:	2f060505 	svccs	0x00060505
     bb0:	06010530 			; <UNDEFINED> instruction: 0x06010530
     bb4:	06160514 			; <UNDEFINED> instruction: 0x06160514
     bb8:	05664803 	strbeq	r4, [r6, #-2051]!	; 0xfffff7fd
     bbc:	67313005 	ldrvs	r3, [r1, -r5]!
     bc0:	13053168 	movwne	r3, #20840	; 0x5168
     bc4:	05050106 	streq	r0, [r5, #-262]	; 0xfffffefa
     bc8:	31680666 	cmncc	r8, r6, ror #12
     bcc:	67696787 	strbvs	r6, [r9, -r7, lsl #15]!
     bd0:	0105686a 	tsteq	r5, sl, ror #16
     bd4:	15052f06 	strne	r2, [r5, #-3846]	; 0xfffff0fa
     bd8:	d61b0306 	ldrle	r0, [fp], -r6, lsl #6
     bdc:	302f0505 	eorcc	r0, pc, r5, lsl #10
     be0:	02001d05 	andeq	r1, r0, #320	; 0x140
     be4:	05010104 	streq	r0, [r1, #-260]	; 0xfffffefc
     be8:	0402000b 	streq	r0, [r2], #-11
     bec:	0d050101 	stfeqs	f0, [r5, #-4]
     bf0:	01040200 	mrseq	r0, R12_usr
     bf4:	0b050106 	bleq	141014 <__bss_end__+0x1379ac>
     bf8:	01040200 	mrseq	r0, R12_usr
     bfc:	0605052e 	streq	r0, [r5], -lr, lsr #10
     c00:	060f054c 	streq	r0, [pc], -ip, asr #10
     c04:	4a090501 	bmi	242010 <__bss_end__+0x2389a8>
     c08:	30060505 	andcc	r0, r6, r5, lsl #10
     c0c:	06010530 			; <UNDEFINED> instruction: 0x06010530
     c10:	06190513 			; <UNDEFINED> instruction: 0x06190513
     c14:	2f050569 	svccs	0x00050569
     c18:	060f052f 	streq	r0, [pc], -pc, lsr #10
     c1c:	06050501 	streq	r0, [r5], -r1, lsl #10
     c20:	0601054b 	streq	r0, [r1], -fp, asr #10
     c24:	1c052e15 	stcne	14, cr2, [r5], {21}
     c28:	01064e06 	tsteq	r6, r6, lsl #28
     c2c:	4b060505 	blmi	182048 <__bss_end__+0x1789e0>
     c30:	001d0530 	andseq	r0, sp, r0, lsr r5
     c34:	01010402 	tsteq	r1, r2, lsl #8
     c38:	02000b05 	andeq	r0, r0, #5120	; 0x1400
     c3c:	05010104 	streq	r0, [r1, #-260]	; 0xfffffefc
     c40:	0402000d 	streq	r0, [r2], #-13
     c44:	05010601 	streq	r0, [r1, #-1537]	; 0xfffff9ff
     c48:	0402000b 	streq	r0, [r2], #-11
     c4c:	05052e01 	streq	r2, [r5, #-3585]	; 0xfffff1ff
     c50:	05684c06 	strbeq	r4, [r8, #-3078]!	; 0xfffff3fa
     c54:	052f0601 	streq	r0, [pc, #-1537]!	; 65b <__code_start__-0x79a5>
     c58:	054f0619 	strbeq	r0, [pc, #-1561]	; 647 <__code_start__-0x79b9>
     c5c:	0c052f05 	stceq	15, cr2, [r5], {5}
     c60:	01050106 	tsteq	r5, r6, lsl #2
     c64:	061b052f 	ldreq	r0, [fp], -pc, lsr #10
     c68:	2f050532 	svccs	0x00050532
     c6c:	01060905 	tsteq	r6, r5, lsl #18
     c70:	052e0705 	streq	r0, [lr, #-1797]!	; 0xfffff8fb
     c74:	054c0605 	strbeq	r0, [ip, #-1541]	; 0xfffff9fb
     c78:	0501060c 	streq	r0, [r1, #-1548]	; 0xfffff9f4
     c7c:	01054910 	tsteq	r5, r0, lsl r9
     c80:	061c0530 			; <UNDEFINED> instruction: 0x061c0530
     c84:	2f050531 	svccs	0x00050531
     c88:	060e052f 	streq	r0, [lr], -pc, lsr #10
     c8c:	4a250501 	bmi	942098 <__bss_end__+0x938a30>
     c90:	052e0905 	streq	r0, [lr, #-2309]!	; 0xfffff6fb
     c94:	2f2f0605 	svccs	0x002f0605
     c98:	13060105 	movwne	r0, #24837	; 0x6105
     c9c:	6a061a05 	bvs	1874b8 <__bss_end__+0x17de50>
     ca0:	02000905 	andeq	r0, r0, #81920	; 0x14000
     ca4:	05300104 	ldreq	r0, [r0, #-260]!	; 0xfffffefc
     ca8:	0402000a 	streq	r0, [r2], #-10
     cac:	0c051101 	stfeqs	f1, [r5], {1}
     cb0:	01040200 	mrseq	r0, R12_usr
     cb4:	0a050106 	beq	1410d4 <__bss_end__+0x137a6c>
     cb8:	01040200 	mrseq	r0, R12_usr
     cbc:	0619052e 	ldreq	r0, [r9], -lr, lsr #10
     cc0:	667fad03 	ldrbtvs	sl, [pc], -r3, lsl #26
     cc4:	302f0505 	eorcc	r0, pc, r5, lsl #10
     cc8:	13053130 	movwne	r3, #20784	; 0x5130
     ccc:	05050106 	streq	r0, [r5, #-262]	; 0xfffffefa
     cd0:	05670666 	strbeq	r0, [r7, #-1638]!	; 0xfffff99a
     cd4:	022f0601 	eoreq	r0, pc, #1048576	; 0x100000
     cd8:	01010004 	tsteq	r1, r4
     cdc:	000005bb 			; <UNDEFINED> instruction: 0x000005bb
     ce0:	00bf0003 	adcseq	r0, pc, r3
     ce4:	01020000 	mrseq	r0, (UNDEF: 2)
     ce8:	000d0efb 	strdeq	r0, [sp], -fp
     cec:	01010101 	tsteq	r1, r1, lsl #2
     cf0:	01000000 	mrseq	r0, (UNDEF: 0)
     cf4:	2e010000 	cdpcs	0, 0, cr0, cr1, cr0, {0}
     cf8:	62696c2f 	rsbvs	r6, r9, #12032	; 0x2f00
     cfc:	752f0063 	strvc	r0, [pc, #-99]!	; ca1 <__code_start__-0x735f>
     d00:	6c2f7273 	sfmvs	f7, 4, [pc], #-460	; b3c <__code_start__-0x74c4>
     d04:	672f6269 	strvs	r6, [pc, -r9, ror #4]!
     d08:	612f6363 			; <UNDEFINED> instruction: 0x612f6363
     d0c:	6e2d6d72 	mcrvs	13, 1, r6, cr13, cr2, {3}
     d10:	2d656e6f 	stclcs	14, cr6, [r5, #-444]!	; 0xfffffe44
     d14:	69626165 	stmdbvs	r2!, {r0, r2, r5, r6, r8, sp, lr}^
     d18:	322e392f 	eorcc	r3, lr, #770048	; 0xbc000
     d1c:	692f312e 	stmdbvs	pc!, {r1, r2, r3, r5, r8, ip, sp}	; <UNPREDICTABLE>
     d20:	756c636e 	strbvc	r6, [ip, #-878]!	; 0xfffffc92
     d24:	2f006564 	svccs	0x00006564
     d28:	656d6f68 	strbvs	r6, [sp, #-3944]!	; 0xfffff098
     d2c:	6e65622f 	cdpvs	2, 6, cr6, cr5, cr15, {1}
     d30:	3173632f 	cmncc	r3, pc, lsr #6
     d34:	2f653034 	svccs	0x00653034
     d38:	34317363 	ldrtcc	r7, [r1], #-867	; 0xfffffc9d
     d3c:	322d6530 	eorcc	r6, sp, #48, 10	; 0xc000000
     d40:	6e697732 	mcrvs	7, 3, r7, cr9, cr2, {1}
     d44:	62696c2f 	rsbvs	r6, r9, #12032	; 0x2f00
     d48:	692f6970 	stmdbvs	pc!, {r4, r5, r6, r8, fp, sp, lr}	; <UNPREDICTABLE>
     d4c:	756c636e 	strbvc	r6, [ip, #-878]!	; 0xfffffc92
     d50:	00006564 	andeq	r6, r0, r4, ror #10
     d54:	702d6176 	eorvc	r6, sp, r6, ror r1
     d58:	746e6972 	strbtvc	r6, [lr], #-2418	; 0xfffff68e
     d5c:	00632e6b 	rsbeq	r2, r3, fp, ror #28
     d60:	73000001 	movwvc	r0, #1
     d64:	6e696474 	mcrvs	4, 3, r6, cr9, cr4, {3}
     d68:	00682e74 	rsbeq	r2, r8, r4, ror lr
     d6c:	72000002 	andvc	r0, r0, #2
     d70:	682e6970 	stmdavs	lr!, {r4, r5, r6, r8, fp, sp, lr}
     d74:	00000300 	andeq	r0, r0, r0, lsl #6
     d78:	2d697072 	stclcs	0, cr7, [r9, #-456]!	; 0xfffffe38
     d7c:	65746e69 	ldrbvs	r6, [r4, #-3689]!	; 0xfffff197
     d80:	6c616e72 	stclvs	14, cr6, [r1], #-456	; 0xfffffe38
     d84:	0300682e 	movweq	r6, #2094	; 0x82e
     d88:	74730000 	ldrbtvc	r0, [r3], #-0
     d8c:	67726164 	ldrbvs	r6, [r2, -r4, ror #2]!
     d90:	0200682e 	andeq	r6, r0, #3014656	; 0x2e0000
     d94:	623c0000 	eorsvs	r0, ip, #0
     d98:	746c6975 	strbtvc	r6, [ip], #-2421	; 0xfffff68b
     d9c:	3e6e692d 	vmulcc.f16	s13, s28, s27	; <UNPREDICTABLE>
     da0:	00000000 	andeq	r0, r0, r0
     da4:	001b0500 	andseq	r0, fp, r0, lsl #10
     da8:	88240205 	stmdahi	r4!, {r0, r2, r9}
     dac:	26030000 	strcs	r0, [r3], -r0
     db0:	011d0501 	tsteq	sp, r1, lsl #10
     db4:	01062d05 	tsteq	r6, r5, lsl #26
     db8:	4a2e0105 	bmi	b811d4 <__bss_end__+0xb77b6c>
     dbc:	51063305 	tstpl	r6, r5, lsl #6
     dc0:	05130205 	ldreq	r0, [r3, #-517]	; 0xfffffdfb
     dc4:	05010606 	streq	r0, [r1, #-1542]	; 0xfffff9fa
     dc8:	05300602 	ldreq	r0, [r0, #-1538]!	; 0xfffff9fe
     dcc:	04020008 	streq	r0, [r2], #-8
     dd0:	02050101 	andeq	r0, r5, #1073741824	; 0x40000000
     dd4:	01040200 	mrseq	r0, R12_usr
     dd8:	03050106 	movweq	r0, #20742	; 0x5106
     ddc:	02040200 	andeq	r0, r4, #0, 4
     de0:	08052f06 	stmdaeq	r5, {r1, r2, r8, r9, sl, fp, sp}
     de4:	02040200 	andeq	r0, r4, #0, 4
     de8:	15050106 	strne	r0, [r5, #-262]	; 0xfffffefa
     dec:	02040200 	andeq	r0, r4, #0, 4
     df0:	18054906 	stmdane	r5, {r1, r2, r8, fp, lr}
     df4:	02040200 	andeq	r0, r4, #0, 4
     df8:	02000106 	andeq	r0, r0, #-2147483647	; 0x80000001
     dfc:	052e0204 	streq	r0, [lr, #-516]!	; 0xfffffdfc
     e00:	05300602 	ldreq	r0, [r0, #-1538]!	; 0xfffff9fe
     e04:	05010605 	streq	r0, [r1, #-1541]	; 0xfffff9fb
     e08:	054b0602 	strbeq	r0, [fp, #-1538]	; 0xfffff9fe
     e0c:	05130601 	ldreq	r0, [r3, #-1537]	; 0xfffff9ff
     e10:	0531063e 	ldreq	r0, [r1, #-1598]!	; 0xfffff9c2
     e14:	0e051402 	cdpeq	4, 0, cr1, cr5, cr2, {0}
     e18:	06050106 	streq	r0, [r5], -r6, lsl #2
     e1c:	0602052e 	streq	r0, [r2], -lr, lsr #10
     e20:	0604052f 	streq	r0, [r4], -pc, lsr #10
     e24:	06030501 	streq	r0, [r3], -r1, lsl #10
     e28:	0611052f 	ldreq	r0, [r1], -pc, lsr #10
     e2c:	2e090501 	cfsh32cs	mvfx0, mvfx9, #1
     e30:	30060205 	andcc	r0, r6, r5, lsl #4
     e34:	06070515 			; <UNDEFINED> instruction: 0x06070515
     e38:	2e020501 	cfsh32cs	mvfx0, mvfx2, #1
     e3c:	02000b05 	andeq	r0, r0, #5120	; 0x1400
     e40:	2e060104 	adfcss	f0, f6, f4
     e44:	02000205 	andeq	r0, r0, #1342177280	; 0x50000000
     e48:	01060104 	tsteq	r6, r4, lsl #2
     e4c:	02000305 	andeq	r0, r0, #335544320	; 0x14000000
     e50:	2f060304 	svccs	0x00060304
     e54:	02000c05 	andeq	r0, r0, #1280	; 0x500
     e58:	01060304 	tsteq	r6, r4, lsl #6
     e5c:	02000a05 	andeq	r0, r0, #20480	; 0x5000
     e60:	052e0304 	streq	r0, [lr, #-772]!	; 0xfffffcfc
     e64:	04020017 	streq	r0, [r2], #-23	; 0xffffffe9
     e68:	002d0603 	eoreq	r0, sp, r3, lsl #12
     e6c:	06030402 	streq	r0, [r3], -r2, lsl #8
     e70:	06020501 	streq	r0, [r2], -r1, lsl #10
     e74:	06090530 			; <UNDEFINED> instruction: 0x06090530
     e78:	02052e01 	andeq	r2, r5, #1, 28
     e7c:	01053006 	tsteq	r5, r6
     e80:	49051306 	stmdbmi	r5, {r1, r2, r8, r9, ip}
     e84:	01063106 	tsteq	r6, r6, lsl #2
     e88:	a0060205 	andge	r0, r6, r5, lsl #4
     e8c:	01060405 	tsteq	r6, r5, lsl #8
     e90:	2f060305 	svccs	0x00060305
     e94:	01060905 	tsteq	r6, r5, lsl #18
     e98:	30060205 	andcc	r0, r6, r5, lsl #4
     e9c:	060b0513 			; <UNDEFINED> instruction: 0x060b0513
     ea0:	06020501 	streq	r0, [r2], -r1, lsl #10
     ea4:	052e0630 	streq	r0, [lr, #-1584]!	; 0xfffff9d0
     ea8:	24020604 	strcs	r0, [r2], #-1540	; 0xfffff9fc
     eac:	0f051315 	svceq	0x00051315
     eb0:	052e0106 	streq	r0, [lr, #-262]!	; 0xfffffefa
     eb4:	05054a06 	streq	r4, [r5, #-2566]	; 0xfffff5fa
     eb8:	05134b06 	ldreq	r4, [r3, #-2822]	; 0xfffff4fa
     ebc:	05010609 	streq	r0, [r1, #-1545]	; 0xfffff9f7
     ec0:	052f0605 	streq	r0, [pc, #-1541]!	; 8c3 <__code_start__-0x773d>
     ec4:	0510060b 	ldreq	r0, [r0, #-1547]	; 0xfffff9f5
     ec8:	0402000d 	streq	r0, [r2], #-13
     ecc:	04052c01 	streq	r2, [r5], #-3073	; 0xfffff3ff
     ed0:	01040200 	mrseq	r0, R12_usr
     ed4:	05053406 	streq	r3, [r5, #-1030]	; 0xfffffbfa
     ed8:	01040200 	mrseq	r0, R12_usr
     edc:	001b0513 	andseq	r0, fp, r3, lsl r5
     ee0:	06010402 	streq	r0, [r1], -r2, lsl #8
     ee4:	00070501 	andeq	r0, r7, r1, lsl #10
     ee8:	d6010402 	strle	r0, [r1], -r2, lsl #8
     eec:	02001805 	andeq	r1, r0, #327680	; 0x50000
     ef0:	052e0104 	streq	r0, [lr, #-260]!	; 0xfffffefc
     ef4:	0402000a 	streq	r0, [r2], #-10
     ef8:	0b054a01 	bleq	153704 <__bss_end__+0x14a09c>
     efc:	01040200 	mrseq	r0, R12_usr
     f00:	0e052f06 	cdpeq	15, 0, cr2, cr5, cr6, {0}
     f04:	01040200 	mrseq	r0, R12_usr
     f08:	04052e06 	streq	r2, [r5], #-3590	; 0xfffff1fa
     f0c:	01040200 	mrseq	r0, R12_usr
     f10:	054b062e 	strbeq	r0, [fp, #-1582]	; 0xfffff9d2
     f14:	05010606 	streq	r0, [r1, #-1542]	; 0xfffff9fa
     f18:	052f0605 	streq	r0, [pc, #-1541]!	; 91b <__code_start__-0x76e5>
     f1c:	0501060a 	streq	r0, [r1, #-1546]	; 0xfffff9f6
     f20:	052e4a07 	streq	r4, [lr, #-2567]!	; 0xfffff5f9
     f24:	2e76030d 	cdpcs	3, 7, cr0, cr6, cr13, {0}
     f28:	0d0b054a 	cfstr32eq	mvfx0, [fp, #-296]	; 0xfffffed8
     f2c:	02000d05 	andeq	r0, r0, #320	; 0x140
     f30:	03060104 	movweq	r0, #24836	; 0x6104
     f34:	11052e14 	tstne	r5, r4, lsl lr
     f38:	01040200 	mrseq	r0, R12_usr
     f3c:	002d0513 	eoreq	r0, sp, r3, lsl r5
     f40:	06010402 	streq	r0, [r1], -r2, lsl #8
     f44:	002a0501 	eoreq	r0, sl, r1, lsl #10
     f48:	2e010402 	cdpcs	4, 0, cr0, cr1, cr2, {0}
     f4c:	02001605 	andeq	r1, r0, #5242880	; 0x500000
     f50:	054a0104 	strbeq	r0, [sl, #-260]	; 0xfffffefc
     f54:	04020014 	streq	r0, [r2], #-20	; 0xffffffec
     f58:	054b0601 	strbeq	r0, [fp, #-1537]	; 0xfffff9ff
     f5c:	0402000d 	streq	r0, [r2], #-13
     f60:	00010601 	andeq	r0, r1, r1, lsl #12
     f64:	4a010402 	bmi	41f74 <__bss_end__+0x3890c>
     f68:	12052f06 	andne	r2, r5, #6, 30
     f6c:	054a0106 	strbeq	r0, [sl, #-262]	; 0xfffffefa
     f70:	052f060d 	streq	r0, [pc, #-1549]!	; 96b <__code_start__-0x7695>
     f74:	05010612 	streq	r0, [r1, #-1554]	; 0xfffff9ee
     f78:	054b0619 	strbeq	r0, [fp, #-1561]	; 0xfffff9e7
     f7c:	04020004 	streq	r0, [r2], #-4
     f80:	01110302 	tsteq	r1, r2, lsl #6
     f84:	02040200 	andeq	r0, r4, #0, 4
     f88:	00020501 	andeq	r0, r2, r1, lsl #10
     f8c:	15020402 	strne	r0, [r2, #-1026]	; 0xfffffbfe
     f90:	02000905 	andeq	r0, r0, #81920	; 0x14000
     f94:	01060204 	tsteq	r6, r4, lsl #4
     f98:	02040200 	andeq	r0, r4, #0, 4
     f9c:	0001054a 	andeq	r0, r1, sl, asr #10
     fa0:	9f020402 	svcls	0x00020402
     fa4:	03060405 	movweq	r0, #25605	; 0x6405
     fa8:	09054a6e 	stmdbeq	r5, {r1, r2, r3, r5, r6, r9, fp, lr}
     fac:	04050106 	streq	r0, [r5], #-262	; 0xfffffefa
     fb0:	06052f06 	streq	r2, [r5], -r6, lsl #30
     fb4:	04051106 	streq	r1, [r5], #-262	; 0xfffffefa
     fb8:	030b052f 	movweq	r0, #46383	; 0xb52f
     fbc:	19052e63 	stmdbne	r5, {r0, r1, r5, r6, r9, sl, fp, sp}
     fc0:	01040200 	mrseq	r0, R12_usr
     fc4:	2e240306 	cdpcs	3, 2, cr0, cr4, cr6, {0}
     fc8:	02001a05 	andeq	r1, r0, #20480	; 0x5000
     fcc:	05130104 	ldreq	r0, [r3, #-260]	; 0xfffffefc
     fd0:	04020028 	streq	r0, [r2], #-40	; 0xffffffd8
     fd4:	05010601 	streq	r0, [r1, #-1537]	; 0xfffff9ff
     fd8:	04020025 	streq	r0, [r2], #-37	; 0xffffffdb
     fdc:	1f052e01 	svcne	0x00052e01
     fe0:	01040200 	mrseq	r0, R12_usr
     fe4:	000b054a 	andeq	r0, fp, sl, asr #10
     fe8:	06010402 	streq	r0, [r1], -r2, lsl #8
     fec:	0004054b 	andeq	r0, r4, fp, asr #10
     ff0:	06010402 	streq	r0, [r1], -r2, lsl #8
     ff4:	04020001 	streq	r0, [r2], #-1
     ff8:	02004a01 	andeq	r4, r0, #4096	; 0x1000
     ffc:	4e060104 	adfmis	f0, f6, f4
    1000:	01040200 	mrseq	r0, R12_usr
    1004:	04020001 	streq	r0, [r2], #-1
    1008:	02000101 	andeq	r0, r0, #1073741824	; 0x40000000
    100c:	00010104 	andeq	r0, r1, r4, lsl #2
    1010:	06010402 	streq	r0, [r1], -r2, lsl #8
    1014:	0402002e 	streq	r0, [r2], #-46	; 0xffffffd2
    1018:	02006601 	andeq	r6, r0, #1048576	; 0x100000
    101c:	002e0104 	eoreq	r0, lr, r4, lsl #2
    1020:	06010402 	streq	r0, [r1], -r2, lsl #8
    1024:	0348054a 	movteq	r0, #34122	; 0x854a
    1028:	20087fa6 	andcs	r7, r8, r6, lsr #31
    102c:	01130505 	tsteq	r3, r5, lsl #10
    1030:	02002e06 	andeq	r2, r0, #6, 28	; 0x60
    1034:	2e060204 	cdpcs	2, 0, cr0, cr6, cr4, {0}
    1038:	02040200 	andeq	r0, r4, #0, 4
    103c:	04020001 	streq	r0, [r2], #-1
    1040:	11051302 	tstne	r5, r2, lsl #6
    1044:	02040200 	andeq	r0, r4, #0, 4
    1048:	05050106 	streq	r0, [r5, #-262]	; 0xfffffefa
    104c:	02040200 	andeq	r0, r4, #0, 4
    1050:	07054b06 	streq	r4, [r5, -r6, lsl #22]
    1054:	02040200 	andeq	r0, r4, #0, 4
    1058:	09050106 	stmdbeq	r5, {r1, r2, r8}
    105c:	0e054b06 	vmlaeq.f64	d4, d5, d6
    1060:	48050106 	stmdami	r5, {r1, r2, r8}
    1064:	01040200 	mrseq	r0, R12_usr
    1068:	00050562 	andeq	r0, r5, r2, ror #10
    106c:	06010402 	streq	r0, [r1], -r2, lsl #8
    1070:	0402004b 	streq	r0, [r2], #-75	; 0xffffffb5
    1074:	02000101 	andeq	r0, r0, #1073741824	; 0x40000000
    1078:	9e060104 	adflss	f0, f6, f4
    107c:	01040200 	mrseq	r0, R12_usr
    1080:	0402002e 	streq	r0, [r2], #-46	; 0xffffffd2
    1084:	052e0601 	streq	r0, [lr, #-1537]!	; 0xfffff9ff
    1088:	00e10340 	rsceq	r0, r1, r0, asr #6
    108c:	050106d6 	streq	r0, [r1, #-1750]	; 0xfffff92a
    1090:	059f0602 	ldreq	r0, [pc, #1538]	; 169a <__code_start__-0x6966>
    1094:	0501061e 	streq	r0, [r1, #-1566]	; 0xfffff9e2
    1098:	05052e12 	streq	r2, [r5, #-3602]	; 0xfffff1ee
    109c:	02052f06 	andeq	r2, r5, #6, 30
    10a0:	06090514 			; <UNDEFINED> instruction: 0x06090514
    10a4:	06050501 	streq	r0, [r5], -r1, lsl #10
    10a8:	1302054b 	movwne	r0, #9547	; 0x254b
    10ac:	0d060805 	stceq	8, cr0, [r6, #-20]	; 0xffffffec
    10b0:	05330205 	ldreq	r0, [r3, #-517]!	; 0xfffffdfb
    10b4:	054c0604 	strbeq	r0, [ip, #-1540]	; 0xfffff9fc
    10b8:	0501060f 	streq	r0, [r1, #-1551]	; 0xfffff9f1
    10bc:	08052e09 	stmdaeq	r5, {r0, r3, r9, sl, fp, sp}
    10c0:	02052c06 	andeq	r2, r5, #1536	; 0x600
    10c4:	0d052e06 	stceq	14, cr2, [r5, #-24]	; 0xffffffe8
    10c8:	01040200 	mrseq	r0, R12_usr
    10cc:	0603054a 	streq	r0, [r3], -sl, asr #10
    10d0:	0605054b 	streq	r0, [r5], -fp, asr #10
    10d4:	06080501 	streq	r0, [r8], -r1, lsl #10
    10d8:	060e054d 	streq	r0, [lr], -sp, asr #10
    10dc:	2e0a0501 	cfsh32cs	mvfx0, mvfx10, #1
    10e0:	2f060405 	svccs	0x00060405
    10e4:	01060905 	tsteq	r6, r5, lsl #18
    10e8:	2f060405 	svccs	0x00060405
    10ec:	01060705 	tsteq	r6, r5, lsl #14
    10f0:	0604052e 	streq	r0, [r4], -lr, lsr #10
    10f4:	06070530 			; <UNDEFINED> instruction: 0x06070530
    10f8:	06040501 	streq	r0, [r4], -r1, lsl #10
    10fc:	05141330 	ldreq	r1, [r4, #-816]	; 0xfffffcd0
    1100:	0510060d 	ldreq	r0, [r0, #-1549]	; 0xfffff9f3
    1104:	05300609 	ldreq	r0, [r0, #-1545]!	; 0xfffff9f7
    1108:	05010612 	streq	r0, [r1, #-1554]	; 0xfffff9ee
    110c:	09052e0a 	stmdbeq	r5, {r1, r3, r9, sl, fp, sp}
    1110:	06050566 	streq	r0, [r5], -r6, ror #10
    1114:	0612054b 	ldreq	r0, [r2], -fp, asr #10
    1118:	2e160501 	cfmul32cs	mvfx0, mvfx6, mvfx1
    111c:	052e0b05 	streq	r0, [lr, #-2821]!	; 0xfffff4fb
    1120:	052f0605 	streq	r0, [pc, #-1541]!	; b23 <__code_start__-0x74dd>
    1124:	2e010608 	cfmadd32cs	mvax0, mvfx0, mvfx1, mvfx8
    1128:	30060405 	andcc	r0, r6, r5, lsl #8
    112c:	15014a01 	strne	r4, [r1, #-2561]	; 0xfffff5ff
    1130:	01040200 	mrseq	r0, R12_usr
    1134:	000f3602 	andeq	r3, pc, r2, lsl #12
    1138:	01010402 	tsteq	r1, r2, lsl #8
    113c:	01040200 	mrseq	r0, R12_usr
    1140:	341105d6 	ldrcc	r0, [r1], #-1494	; 0xfffffa2a
    1144:	02000113 	andeq	r0, r0, #-1073741820	; 0xc0000004
    1148:	ba060204 	blt	181960 <__bss_end__+0x1782f8>
    114c:	03040200 	movweq	r0, #16896	; 0x4200
    1150:	0200ba06 	andeq	fp, r0, #24576	; 0x6000
    1154:	00010304 	andeq	r0, r1, r4, lsl #6
    1158:	14030402 	strne	r0, [r3], #-1026	; 0xfffffbfe
    115c:	02001505 	andeq	r1, r0, #20971520	; 0x1400000
    1160:	01060304 	tsteq	r6, r4, lsl #6
    1164:	02001105 	andeq	r1, r0, #1073741825	; 0x40000001
    1168:	2f060304 	svccs	0x00060304
    116c:	02001a05 	andeq	r1, r0, #20480	; 0x5000
    1170:	01060304 	tsteq	r6, r4, lsl #6
    1174:	02001105 	andeq	r1, r0, #1073741825	; 0x40000001
    1178:	d7060304 	strle	r0, [r6, -r4, lsl #6]
    117c:	03040200 	movweq	r0, #16896	; 0x4200
    1180:	04020013 	streq	r0, [r2], #-19	; 0xffffffed
    1184:	14051703 	strne	r1, [r5], #-1795	; 0xfffff8fd
    1188:	03040200 	movweq	r0, #16896	; 0x4200
    118c:	13050106 	movwne	r0, #20742	; 0x5106
    1190:	03040200 	movweq	r0, #16896	; 0x4200
    1194:	06180582 	ldreq	r0, [r8], -r2, lsl #11
    1198:	061b054e 	ldreq	r0, [fp], -lr, asr #10
    119c:	821a0501 	andshi	r0, sl, #4194304	; 0x400000
    11a0:	4b060905 	blmi	1835bc <__bss_end__+0x179f54>
    11a4:	01060d05 	tsteq	r6, r5, lsl #26
    11a8:	0609052e 	streq	r0, [r9], -lr, lsr #10
    11ac:	05ba06f3 	ldreq	r0, [sl, #1779]!	; 0x6f3
    11b0:	05300615 	ldreq	r0, [r0, #-1557]!	; 0xfffff9eb
    11b4:	05010618 	streq	r0, [r1, #-1560]	; 0xfffff9e8
    11b8:	19056617 	stmdbne	r5, {r0, r1, r2, r4, r9, sl, sp, lr}
    11bc:	15054b06 	strne	r4, [r5, #-2822]	; 0xfffff4fa
    11c0:	666f0306 	strbtvs	r0, [pc], -r6, lsl #6
    11c4:	48061105 	stmdami	r6, {r0, r2, r8, ip}
    11c8:	0905d601 	stmdbeq	r5, {r0, r9, sl, ip, lr, pc}
    11cc:	052e0b03 	streq	r0, [lr, #-2819]!	; 0xfffff4fd
    11d0:	2e01060d 	cfmadd32cs	mvax0, mvfx0, mvfx1, mvfx13
    11d4:	f3060905 	vmls.i8	d0, d6, d5
    11d8:	1505ba06 	strne	fp, [r5, #-2566]	; 0xfffff5fa
    11dc:	03062f06 	movweq	r2, #28422	; 0x6f06
    11e0:	19056675 	stmdbne	r5, {r0, r2, r4, r5, r6, r9, sl, sp, lr}
    11e4:	4a130306 	bmi	4c1e04 <__bss_end__+0x4b879c>
    11e8:	03061505 	movweq	r1, #25861	; 0x6505
    11ec:	0306666d 	movweq	r6, #26221	; 0x666d
    11f0:	ba014a15 	blt	53a4c <__bss_end__+0x4a3e4>
    11f4:	05052e06 	streq	r2, [r5, #-3590]	; 0xfffff1fa
    11f8:	9e011a06 	vmlals.f32	s2, s2, s12
    11fc:	010e032e 	tsteq	lr, lr, lsr #6
    1200:	01060905 	tsteq	r6, r5, lsl #18
    1204:	08060505 	stmdaeq	r6, {r0, r2, r8, sl}
    1208:	03040575 	movweq	r0, #17781	; 0x4575
    120c:	07050118 	smladeq	r5, r8, r1, r0
    1210:	04050106 	streq	r0, [r5], #-262	; 0xfffffefa
    1214:	05053106 	streq	r3, [r5, #-262]	; 0xfffffefa
    1218:	052e6703 	streq	r6, [lr, #-1795]!	; 0xfffff8fd
    121c:	0501061c 	streq	r0, [r1, #-1564]	; 0xfffff9e4
    1220:	05058209 	streq	r8, [r5, #-521]	; 0xfffffdf7
    1224:	0531f306 	ldreq	pc, [r1, #-774]!	; 0xfffffcfa
    1228:	0501061c 	streq	r0, [r1, #-1564]	; 0xfffff9e4
    122c:	05058209 	streq	r8, [r5, #-521]	; 0xfffffdf7
    1230:	0530f306 	ldreq	pc, [r0, #-774]!	; 0xfffffcfa
    1234:	0501061b 	streq	r0, [r1, #-1563]	; 0xfffff9e5
    1238:	05058209 	streq	r8, [r5, #-521]	; 0xfffffdf7
    123c:	0530f306 	ldreq	pc, [r0, #-774]!	; 0xfffffcfa
    1240:	05010607 	streq	r0, [r1, #-1543]	; 0xfffff9f9
    1244:	30830605 	addcc	r0, r3, r5, lsl #12
    1248:	01060905 	tsteq	r6, r5, lsl #18
    124c:	08060505 	stmdaeq	r6, {r0, r2, r8, sl}
    1250:	30110575 	andscc	r0, r1, r5, ror r5
    1254:	01062205 	tsteq	r6, r5, lsl #4
    1258:	4b060505 	blmi	182674 <__bss_end__+0x17900c>
    125c:	05831105 	streq	r1, [r3, #261]	; 0x105
    1260:	9e018305 	cdpls	3, 0, cr8, cr1, cr5, {0}
    1264:	060e0535 			; <UNDEFINED> instruction: 0x060e0535
    1268:	2e0a0501 	cfsh32cs	mvfx0, mvfx10, #1
    126c:	04052d06 	streq	r2, [r5], #-3334	; 0xfffff2fa
    1270:	13050106 	movwne	r0, #20742	; 0x5106
    1274:	01040200 	mrseq	r0, R12_usr
    1278:	0010054a 	andseq	r0, r0, sl, asr #10
    127c:	2e010402 	cdpcs	4, 0, cr0, cr1, cr2, {0}
    1280:	01040200 	mrseq	r0, R12_usr
    1284:	06020566 	streq	r0, [r2], -r6, ror #10
    1288:	06070516 			; <UNDEFINED> instruction: 0x06070516
    128c:	06020501 	streq	r0, [r2], -r1, lsl #10
    1290:	0601054b 	streq	r0, [r1], -fp, asr #10
    1294:	1a026613 	bne	9aae8 <__bss_end__+0x91480>
    1298:	9f010100 	svcls	0x00010100
    129c:	03000000 	movweq	r0, #0
    12a0:	00005b00 	andeq	r5, r0, r0, lsl #22
    12a4:	fb010200 	blx	41aae <__bss_end__+0x38446>
    12a8:	01000d0e 	tsteq	r0, lr, lsl #26
    12ac:	00010101 	andeq	r0, r1, r1, lsl #2
    12b0:	00010000 	andeq	r0, r1, r0
    12b4:	2f2e0100 	svccs	0x002e0100
    12b8:	6362696c 	cmnvs	r2, #108, 18	; 0x1b0000
    12bc:	6f682f00 	svcvs	0x00682f00
    12c0:	622f656d 	eorvs	r6, pc, #457179136	; 0x1b400000
    12c4:	632f6e65 			; <UNDEFINED> instruction: 0x632f6e65
    12c8:	30343173 	eorscc	r3, r4, r3, ror r1
    12cc:	73632f65 	cmnvc	r3, #404	; 0x194
    12d0:	65303431 	ldrvs	r3, [r0, #-1073]!	; 0xfffffbcf
    12d4:	7732322d 	ldrvc	r3, [r2, -sp, lsr #4]!
    12d8:	6c2f6e69 	stcvs	14, cr6, [pc], #-420	; 113c <__code_start__-0x6ec4>
    12dc:	69706269 	ldmdbvs	r0!, {r0, r3, r5, r6, r9, sp, lr}^
    12e0:	636e692f 	cmnvs	lr, #770048	; 0xbc000
    12e4:	6564756c 	strbvs	r7, [r4, #-1388]!	; 0xfffffa94
    12e8:	74730000 	ldrbtvc	r0, [r3], #-0
    12ec:	706d6372 	rsbvc	r6, sp, r2, ror r3
    12f0:	0100632e 	tsteq	r0, lr, lsr #6
    12f4:	70720000 	rsbsvc	r0, r2, r0
    12f8:	00682e69 	rsbeq	r2, r8, r9, ror #28
    12fc:	00000002 	andeq	r0, r0, r2
    1300:	05002a05 	streq	r2, [r0, #-2565]	; 0xfffff5fb
    1304:	008f4402 	addeq	r4, pc, r2, lsl #8
    1308:	09051400 	stmdbeq	r5, {sl, ip}
    130c:	010f0513 	tsteq	pc, r3, lsl r5	; <UNPREDICTABLE>
    1310:	01061005 	tsteq	r6, r5
    1314:	052e0f05 	streq	r0, [lr, #-3845]!	; 0xfffff0fb
    1318:	0402001c 	streq	r0, [r2], #-28	; 0xffffffe4
    131c:	13054a01 	movwne	r4, #23041	; 0x5a01
    1320:	01040200 	mrseq	r0, R12_usr
    1324:	0611052e 	ldreq	r0, [r1], -lr, lsr #10
    1328:	0616052f 	ldreq	r0, [r6], -pc, lsr #10
    132c:	09052e2e 	stmdbeq	r5, {r1, r2, r3, r5, r9, sl, fp, sp}
    1330:	15052f06 	strne	r2, [r5, #-3846]	; 0xfffff0fa
    1334:	01050106 	tsteq	r5, r6, lsl #2
    1338:	0004022f 	andeq	r0, r4, pc, lsr #4
    133c:	009d0101 	addseq	r0, sp, r1, lsl #2
    1340:	00030000 	andeq	r0, r3, r0
    1344:	0000005b 	andeq	r0, r0, fp, asr r0
    1348:	0efb0102 	cdpeq	1, 15, cr0, cr11, cr2, {0}
    134c:	0101000d 	tsteq	r1, sp
    1350:	00000101 	andeq	r0, r0, r1, lsl #2
    1354:	00000100 	andeq	r0, r0, r0, lsl #2
    1358:	6c2f2e01 	stcvs	14, cr2, [pc], #-4	; 135c <__code_start__-0x6ca4>
    135c:	00636269 	rsbeq	r6, r3, r9, ror #4
    1360:	6d6f682f 	stclvs	8, cr6, [pc, #-188]!	; 12ac <__code_start__-0x6d54>
    1364:	65622f65 	strbvs	r2, [r2, #-3941]!	; 0xfffff09b
    1368:	73632f6e 	cmnvc	r3, #440	; 0x1b8
    136c:	65303431 	ldrvs	r3, [r0, #-1073]!	; 0xfffffbcf
    1370:	3173632f 	cmncc	r3, pc, lsr #6
    1374:	2d653034 	stclcs	0, cr3, [r5, #-208]!	; 0xffffff30
    1378:	69773232 	ldmdbvs	r7!, {r1, r4, r5, r9, ip, sp}^
    137c:	696c2f6e 	stmdbvs	ip!, {r1, r2, r3, r5, r6, r8, r9, sl, fp, sp}^
    1380:	2f697062 	svccs	0x00697062
    1384:	6c636e69 	stclvs	14, cr6, [r3], #-420	; 0xfffffe5c
    1388:	00656475 	rsbeq	r6, r5, r5, ror r4
    138c:	72747300 	rsbsvc	r7, r4, #0, 6
    1390:	2e797063 	cdpcs	0, 7, cr7, cr9, cr3, {3}
    1394:	00010063 	andeq	r0, r1, r3, rrx
    1398:	69707200 	ldmdbvs	r0!, {r9, ip, sp, lr}^
    139c:	0200682e 	andeq	r6, r0, #3014656	; 0x2e0000
    13a0:	05000000 	streq	r0, [r0, #-0]
    13a4:	0205002a 	andeq	r0, r5, #42	; 0x2a
    13a8:	00008f70 	andeq	r8, r0, r0, ror pc
    13ac:	13050514 	movwne	r0, #21780	; 0x5514
    13b0:	06140513 			; <UNDEFINED> instruction: 0x06140513
    13b4:	00220511 	eoreq	r0, r2, r1, lsl r5
    13b8:	06010402 	streq	r0, [r1], -r2, lsl #8
    13bc:	000b052f 	andeq	r0, fp, pc, lsr #10
    13c0:	01010402 	tsteq	r1, r2, lsl #8
    13c4:	02001505 	andeq	r1, r0, #20971520	; 0x1400000
    13c8:	01060104 	tsteq	r6, r4, lsl #2
    13cc:	02001305 	andeq	r1, r0, #335544320	; 0x14000000
    13d0:	054a0104 	strbeq	r0, [sl, #-260]	; 0xfffffefc
    13d4:	0402000b 	streq	r0, [r2], #-11
    13d8:	06024a01 	streq	r4, [r2], -r1, lsl #20
    13dc:	e6010100 	str	r0, [r1], -r0, lsl #2
    13e0:	03000000 	movweq	r0, #0
    13e4:	00005b00 	andeq	r5, r0, r0, lsl #22
    13e8:	fb010200 	blx	41bf2 <__bss_end__+0x3858a>
    13ec:	01000d0e 	tsteq	r0, lr, lsl #26
    13f0:	00010101 	andeq	r0, r1, r1, lsl #2
    13f4:	00010000 	andeq	r0, r1, r0
    13f8:	2f2e0100 	svccs	0x002e0100
    13fc:	6362696c 	cmnvs	r2, #108, 18	; 0x1b0000
    1400:	6f682f00 	svcvs	0x00682f00
    1404:	622f656d 	eorvs	r6, pc, #457179136	; 0x1b400000
    1408:	632f6e65 			; <UNDEFINED> instruction: 0x632f6e65
    140c:	30343173 	eorscc	r3, r4, r3, ror r1
    1410:	73632f65 	cmnvc	r3, #404	; 0x194
    1414:	65303431 	ldrvs	r3, [r0, #-1073]!	; 0xfffffbcf
    1418:	7732322d 	ldrvc	r3, [r2, -sp, lsr #4]!
    141c:	6c2f6e69 	stcvs	14, cr6, [pc], #-420	; 1280 <__code_start__-0x6d80>
    1420:	69706269 	ldmdbvs	r0!, {r0, r3, r5, r6, r9, sp, lr}^
    1424:	636e692f 	cmnvs	lr, #770048	; 0xbc000
    1428:	6564756c 	strbvs	r7, [r4, #-1388]!	; 0xfffffa94
    142c:	74730000 	ldrbtvc	r0, [r3], #-0
    1430:	74616372 	strbtvc	r6, [r1], #-882	; 0xfffffc8e
    1434:	0100632e 	tsteq	r0, lr, lsr #6
    1438:	70720000 	rsbsvc	r0, r2, r0
    143c:	00682e69 	rsbeq	r2, r8, r9, ror #28
    1440:	00000002 	andeq	r0, r0, r2
    1444:	05002c05 	streq	r2, [r0, #-3077]	; 0xfffff3fb
    1448:	008f9002 	addeq	r9, pc, r2
    144c:	05051500 	streq	r1, [r5, #-1280]	; 0xfffffb00
    1450:	0b051313 	bleq	1460a4 <__bss_end__+0x13ca3c>
    1454:	05051106 	streq	r1, [r5, #-262]	; 0xfffffefa
    1458:	01040200 	mrseq	r0, R12_usr
    145c:	02003006 	andeq	r3, r0, #6
    1460:	05150104 	ldreq	r0, [r5, #-260]	; 0xfffffefc
    1464:	04020009 	streq	r0, [r2], #-9
    1468:	10051301 	andne	r1, r5, r1, lsl #6
    146c:	01040200 	mrseq	r0, R12_usr
    1470:	0b052e06 	bleq	14cc90 <__bss_end__+0x143628>
    1474:	01040200 	mrseq	r0, R12_usr
    1478:	0402002e 	streq	r0, [r2], #-46	; 0xffffffd2
    147c:	052f0601 	streq	r0, [pc, #-1537]!	; e83 <__code_start__-0x717d>
    1480:	04020005 	streq	r0, [r2], #-5
    1484:	06010601 	streq	r0, [r1], -r1, lsl #12
    1488:	0608054e 	streq	r0, [r8], -lr, asr #10
    148c:	00050501 	andeq	r0, r5, r1, lsl #10
    1490:	06010402 	streq	r0, [r1], -r2, lsl #8
    1494:	0009052f 	andeq	r0, r9, pc, lsr #10
    1498:	13010402 	movwne	r0, #5122	; 0x1402
    149c:	02000b05 	andeq	r0, r0, #5120	; 0x1400
    14a0:	01060104 	tsteq	r6, r4, lsl #2
    14a4:	02000905 	andeq	r0, r0, #81920	; 0x14000
    14a8:	4b060104 	blmi	1818c0 <__bss_end__+0x178258>
    14ac:	02000f05 	andeq	r0, r0, #5, 30
    14b0:	01060104 	tsteq	r6, r4, lsl #2
    14b4:	02000d05 	andeq	r0, r0, #320	; 0x140
    14b8:	2f060104 	svccs	0x00060104
    14bc:	02000505 	andeq	r0, r0, #20971520	; 0x1400000
    14c0:	01060104 	tsteq	r6, r4, lsl #2
    14c4:	01000602 	tsteq	r0, r2, lsl #12
    14c8:	0000cd01 	andeq	ip, r0, r1, lsl #26
    14cc:	91000300 	mrsls	r0, LR_irq
    14d0:	02000000 	andeq	r0, r0, #0
    14d4:	0d0efb01 	vstreq	d15, [lr, #-4]
    14d8:	01010100 	mrseq	r0, (UNDEF: 17)
    14dc:	00000001 	andeq	r0, r0, r1
    14e0:	01000001 	tsteq	r0, r1
    14e4:	696c2f2e 	stmdbvs	ip!, {r1, r2, r3, r5, r8, r9, sl, fp, sp}^
    14e8:	2f006362 	svccs	0x00006362
    14ec:	656d6f68 	strbvs	r6, [sp, #-3944]!	; 0xfffff098
    14f0:	6e65622f 	cdpvs	2, 6, cr6, cr5, cr15, {1}
    14f4:	3173632f 	cmncc	r3, pc, lsr #6
    14f8:	2f653034 	svccs	0x00653034
    14fc:	34317363 	ldrtcc	r7, [r1], #-867	; 0xfffffc9d
    1500:	322d6530 	eorcc	r6, sp, #48, 10	; 0xc000000
    1504:	6e697732 	mcrvs	7, 3, r7, cr9, cr2, {1}
    1508:	62696c2f 	rsbvs	r6, r9, #12032	; 0x2f00
    150c:	692f6970 	stmdbvs	pc!, {r4, r5, r6, r8, fp, sp, lr}	; <UNPREDICTABLE>
    1510:	756c636e 	strbvc	r6, [ip, #-878]!	; 0xfffffc92
    1514:	2f006564 	svccs	0x00006564
    1518:	2f727375 	svccs	0x00727375
    151c:	2f62696c 	svccs	0x0062696c
    1520:	2f636367 	svccs	0x00636367
    1524:	2d6d7261 	sfmcs	f7, 2, [sp, #-388]!	; 0xfffffe7c
    1528:	656e6f6e 	strbvs	r6, [lr, #-3950]!	; 0xfffff092
    152c:	6261652d 	rsbvs	r6, r1, #188743680	; 0xb400000
    1530:	2e392f69 	cdpcs	15, 3, cr2, cr9, cr9, {3}
    1534:	2f312e32 	svccs	0x00312e32
    1538:	6c636e69 	stclvs	14, cr6, [r3], #-420	; 0xfffffe5c
    153c:	00656475 	rsbeq	r6, r5, r5, ror r4
    1540:	72747300 	rsbsvc	r7, r4, #0, 6
    1544:	706d636e 	rsbvc	r6, sp, lr, ror #6
    1548:	0100632e 	tsteq	r0, lr, lsr #6
    154c:	70720000 	rsbsvc	r0, r2, r0
    1550:	00682e69 	rsbeq	r2, r8, r9, ror #28
    1554:	73000002 	movwvc	r0, #2
    1558:	65646474 	strbvs	r6, [r4, #-1140]!	; 0xfffffb8c
    155c:	00682e66 	rsbeq	r2, r8, r6, ror #28
    1560:	00000003 	andeq	r0, r0, r3
    1564:	05003905 	streq	r3, [r0, #-2309]	; 0xfffff6fb
    1568:	008fc402 	addeq	ip, pc, r2, lsl #8
    156c:	05051500 	streq	r1, [r5, #-1280]	; 0xfffffb00
    1570:	0a051313 	beq	1461c4 <__bss_end__+0x13cb5c>
    1574:	4a010601 	bmi	42d80 <__bss_end__+0x39718>
    1578:	2f060905 	svccs	0x00060905
    157c:	01060c05 	tsteq	r6, r5, lsl #24
    1580:	052e1305 	streq	r1, [lr, #-773]!	; 0xfffffcfb
    1584:	0d052e0b 	stceq	14, cr2, [r5, #-44]	; 0xffffffd4
    1588:	1b054b06 	blne	1541a8 <__bss_end__+0x14ab40>
    158c:	052e0106 	streq	r0, [lr, #-262]!	; 0xfffffefa
    1590:	0105300c 	tsteq	r5, ip
    1594:	0002022f 	andeq	r0, r2, pc, lsr #4
    1598:	Address 0x0000000000001598 is out of bounds.


Disassembly of section .debug_str:

00000000 <.debug_str>:
   0:	64616572 	strbtvs	r6, [r1], #-1394	; 0xfffffa8e
   4:	7665645f 			; <UNDEFINED> instruction: 0x7665645f
   8:	5f656369 	svcpl	0x00656369
   c:	74617473 	strbtvc	r7, [r1], #-1139	; 0xfffffb8d
  10:	6e007375 	mcrvs	3, 0, r7, cr0, cr5, {3}
  14:	616d746f 	cmnvs	sp, pc, ror #8
  18:	75006e69 	strvc	r6, [r0, #-3689]	; 0xfffff197
  1c:	6769736e 	strbvs	r7, [r9, -lr, ror #6]!
  20:	2064656e 	rsbcs	r6, r4, lr, ror #10
  24:	72616863 	rsbvc	r6, r1, #6488064	; 0x630000
  28:	6f687300 	svcvs	0x00687300
  2c:	75207472 	strvc	r7, [r0, #-1138]!	; 0xfffffb8e
  30:	6769736e 	strbvs	r7, [r9, -lr, ror #6]!
  34:	2064656e 	rsbcs	r6, r4, lr, ror #10
  38:	00746e69 	rsbseq	r6, r4, r9, ror #28
  3c:	676e6f6c 	strbvs	r6, [lr, -ip, ror #30]!
  40:	6e6f6c20 	cdpvs	12, 6, cr6, cr15, cr0, {1}
  44:	6e752067 	cdpvs	0, 7, cr2, cr5, cr7, {3}
  48:	6e676973 			; <UNDEFINED> instruction: 0x6e676973
  4c:	69206465 	stmdbvs	r0!, {r0, r2, r5, r6, sl, sp, lr}
  50:	6c00746e 	cfstrsvs	mvf7, [r0], {110}	; 0x6e
  54:	20676e6f 	rsbcs	r6, r7, pc, ror #28
  58:	676e6f6c 	strbvs	r6, [lr, -ip, ror #30]!
  5c:	746e6920 	strbtvc	r6, [lr], #-2336	; 0xfffff6e0
  60:	69707200 	ldmdbvs	r0!, {r9, ip, sp, lr}^
  64:	7475705f 	ldrbtvc	r7, [r5], #-95	; 0xffffffa1
  68:	72616863 	rsbvc	r6, r1, #6488064	; 0x630000
  6c:	6f687300 	svcvs	0x00687300
  70:	69207472 	stmdbvs	r0!, {r1, r4, r5, r6, sl, ip, sp, lr}
  74:	3000746e 	andcc	r7, r0, lr, ror #8
  78:	7665642d 	strbtvc	r6, [r5], -sp, lsr #8
  7c:	2d656369 	stclcs	3, cr6, [r5, #-420]!	; 0xfffffe5c
  80:	74617473 	strbtvc	r7, [r1], #-1139	; 0xfffffb8d
  84:	632e7375 			; <UNDEFINED> instruction: 0x632e7375
  88:	6e6f6300 	cdpvs	3, 6, cr6, cr15, cr0, {0}
  8c:	75676966 	strbvc	r6, [r7, #-2406]!	; 0xfffff69a
  90:	695f6572 	ldmdbvs	pc, {r1, r4, r5, r6, r8, sl, sp, lr}^	; <UNPREDICTABLE>
  94:	682f006f 	stmdavs	pc!, {r0, r1, r2, r3, r5, r6}	; <UNPREDICTABLE>
  98:	2f656d6f 	svccs	0x00656d6f
  9c:	2f6e6562 	svccs	0x006e6562
  a0:	34317363 	ldrtcc	r7, [r1], #-867	; 0xfffffc9d
  a4:	702f6530 	eorvc	r6, pc, r0, lsr r5	; <UNPREDICTABLE>
  a8:	702d6369 	eorvc	r6, sp, r9, ror #6
  ac:	72676f72 	rsbvc	r6, r7, #456	; 0x1c8
  b0:	656d6d61 	strbvs	r6, [sp, #-3425]!	; 0xfffff29f
  b4:	6f632f72 	svcvs	0x00632f72
  b8:	47006564 	strmi	r6, [r0, -r4, ror #10]
  bc:	4320554e 			; <UNDEFINED> instruction: 0x4320554e
  c0:	39203939 	stmdbcc	r0!, {r0, r3, r4, r5, r8, fp, ip, sp}
  c4:	312e322e 			; <UNDEFINED> instruction: 0x312e322e
  c8:	31303220 	teqcc	r0, r0, lsr #4
  cc:	32303139 	eorscc	r3, r0, #1073741838	; 0x4000000e
  d0:	72282035 	eorvc	r2, r8, #53	; 0x35
  d4:	61656c65 	cmnvs	r5, r5, ror #24
  d8:	20296573 	eorcs	r6, r9, r3, ror r5
  dc:	4d52415b 	ldfmie	f4, [r2, #-364]	; 0xfffffe94
  e0:	6d72612f 	ldfvse	f6, [r2, #-188]!	; 0xffffff44
  e4:	622d392d 	eorvs	r3, sp, #737280	; 0xb4000
  e8:	636e6172 	cmnvs	lr, #-2147483620	; 0x8000001c
  ec:	65722068 	ldrbvs	r2, [r2, #-104]!	; 0xffffff98
  f0:	69736976 	ldmdbvs	r3!, {r1, r2, r4, r5, r6, r8, fp, sp, lr}^
  f4:	32206e6f 	eorcc	r6, r0, #1776	; 0x6f0
  f8:	39353737 	ldmdbcc	r5!, {r0, r1, r2, r4, r5, r8, r9, sl, ip, sp}
  fc:	2d205d39 	stccs	13, cr5, [r0, #-228]!	; 0xffffff1c
 100:	7570636d 	ldrbvc	r6, [r0, #-877]!	; 0xfffffc93
 104:	6d72613d 	ldfvse	f6, [r2, #-244]!	; 0xffffff0c
 108:	36373131 			; <UNDEFINED> instruction: 0x36373131
 10c:	2d667a6a 	vstmdbcs	r6!, {s15-s120}
 110:	6d2d2073 	stcvs	0, cr2, [sp, #-460]!	; 0xfffffe34
 114:	656e7574 	strbvs	r7, [lr, #-1396]!	; 0xfffffa8c
 118:	6d72613d 	ldfvse	f6, [r2, #-244]!	; 0xffffff0c
 11c:	36373131 			; <UNDEFINED> instruction: 0x36373131
 120:	2d667a6a 	vstmdbcs	r6!, {s15-s120}
 124:	6d2d2073 	stcvs	0, cr2, [sp, #-460]!	; 0xfffffe34
 128:	616f6c66 	cmnvs	pc, r6, ror #24
 12c:	62612d74 	rsbvs	r2, r1, #116, 26	; 0x1d00
 130:	6f733d69 	svcvs	0x00733d69
 134:	2d207466 	cfstrscs	mvf7, [r0, #-408]!	; 0xfffffe68
 138:	6d72616d 	ldfvse	f6, [r2, #-436]!	; 0xfffffe4c
 13c:	616d2d20 	cmnvs	sp, r0, lsr #26
 140:	3d686372 	stclcc	3, cr6, [r8, #-456]!	; 0xfffffe38
 144:	766d7261 	strbtvc	r7, [sp], -r1, ror #4
 148:	207a6b36 	rsbscs	r6, sl, r6, lsr fp
 14c:	6467672d 	strbtvs	r6, [r7], #-1837	; 0xfffff8d3
 150:	4f2d2062 	svcmi	0x002d2062
 154:	732d2067 			; <UNDEFINED> instruction: 0x732d2067
 158:	673d6474 			; <UNDEFINED> instruction: 0x673d6474
 15c:	3939756e 	ldmdbcc	r9!, {r1, r2, r3, r5, r6, r8, sl, ip, sp, lr}
 160:	66662d20 	strbtvs	r2, [r6], -r0, lsr #26
 164:	73656572 	cmnvc	r5, #478150656	; 0x1c800000
 168:	646e6174 	strbtvs	r6, [lr], #-372	; 0xfffffe8c
 16c:	00676e69 	rsbeq	r6, r7, r9, ror #28
 170:	65746e65 	ldrbvs	r6, [r4, #-3685]!	; 0xfffff19b
 174:	72705f72 	rsbsvc	r5, r0, #456	; 0x1c8
 178:	6172676f 	cmnvs	r2, pc, ror #14
 17c:	6e696d6d 	cdpvs	13, 6, cr6, cr9, cr13, {3}
 180:	6f6d5f67 	svcvs	0x006d5f67
 184:	69006564 	stmdbvs	r0, {r2, r5, r6, r8, sl, sp, lr}
 188:	61645f6e 	cmnvs	r4, lr, ror #30
 18c:	67006174 	smlsdxvs	r0, r4, r1, r6
 190:	5f6f6970 	svcpl	0x006f6970
 194:	64616572 	strbtvs	r6, [r1], #-1394	; 0xfffffa8e
 198:	69706700 	ldmdbvs	r0!, {r8, r9, sl, sp, lr}^
 19c:	65735f6f 	ldrbvs	r5, [r3, #-3951]!	; 0xfffff091
 1a0:	756f5f74 	strbvc	r5, [pc, #-3956]!	; fffff234 <__bss_end__+0xffff5bcc>
 1a4:	74757074 	ldrbtvc	r7, [r5], #-116	; 0xffffff8c
 1a8:	61746a00 	cmnvs	r4, r0, lsl #20
 1ac:	00632e67 	rsbeq	r2, r3, r7, ror #28
 1b0:	61656c63 	cmnvs	r5, r3, ror #24
 1b4:	65725f6e 	ldrbvs	r5, [r2, #-3950]!	; 0xfffff092
 1b8:	746f6f62 	strbtvc	r6, [pc], #-3938	; 1c0 <__code_start__-0x7e40>
 1bc:	65667800 	strbvs	r7, [r6, #-2048]!	; 0xfffff800
 1c0:	61645f72 	smcvs	17906	; 0x45f2
 1c4:	67006174 	smlsdxvs	r0, r4, r1, r6
 1c8:	5f6f6970 	svcpl	0x006f6970
 1cc:	5f746573 	svcpl	0x00746573
 1d0:	75706e69 	ldrbvc	r6, [r0, #-3689]!	; 0xfffff197
 1d4:	70670074 	rsbvc	r0, r7, r4, ror r0
 1d8:	735f6f69 	cmpvc	pc, #420	; 0x1a4
 1dc:	6f5f7465 	svcvs	0x005f7465
 1e0:	63006666 	movwvs	r6, #1638	; 0x666
 1e4:	6b636f6c 	blvs	18dbf9c <__bss_end__+0x18d2934>
 1e8:	006e695f 	rsbeq	r6, lr, pc, asr r9
 1ec:	55465f5f 	strbpl	r5, [r6, #-3935]	; 0xfffff0a1
 1f0:	4954434e 	ldmdbmi	r4, {r1, r2, r3, r6, r8, r9, lr}^
 1f4:	5f5f4e4f 	svcpl	0x005f4e4f
 1f8:	6e657300 	cdpvs	3, 6, cr7, cr5, cr0, {0}
 1fc:	6f635f64 	svcvs	0x00635f64
 200:	6e616d6d 	cdpvs	13, 6, cr6, cr1, cr13, {3}
 204:	69620064 	stmdbvs	r2!, {r2, r5, r6}^
 208:	73695f74 	cmnvc	r9, #116, 30	; 0x1d0
 20c:	006e6f5f 	rsbeq	r6, lr, pc, asr pc
 210:	746e6975 	strbtvc	r6, [lr], #-2421	; 0xfffff68b
 214:	00745f38 	rsbseq	r5, r4, r8, lsr pc
 218:	6f697067 	svcvs	0x00697067
 21c:	6972775f 	ldmdbvs	r2!, {r0, r1, r2, r3, r4, r6, r8, r9, sl, ip, sp, lr}^
 220:	73006574 	movwvc	r6, #1396	; 0x574
 224:	6d5f7465 	cfldrdvs	mvd7, [pc, #-404]	; 98 <__code_start__-0x7f68>
 228:	0065646f 	rsbeq	r6, r5, pc, ror #8
 22c:	646e6573 	strbtvs	r6, [lr], #-1395	; 0xfffffa8d
 230:	69626e5f 	stmdbvs	r2!, {r0, r1, r2, r3, r4, r6, r9, sl, fp, sp, lr}^
 234:	75007374 	strvc	r7, [r0, #-884]	; 0xfffffc8c
 238:	33746e69 	cmncc	r4, #1680	; 0x690
 23c:	00745f32 	rsbseq	r5, r4, r2, lsr pc
 240:	74617473 	strbtvc	r7, [r1], #-1139	; 0xfffffb8d
 244:	61567375 	cmpvs	r6, r5, ror r3
 248:	6564006c 	strbvs	r0, [r4, #-108]!	; 0xffffff94
 24c:	5f79616c 	svcpl	0x0079616c
 250:	67007375 	smlsdxvs	r0, r5, r3, r7
 254:	5f6f6970 	svcpl	0x006f6970
 258:	5f746573 	svcpl	0x00746573
 25c:	67006e6f 	strvs	r6, [r0, -pc, ror #28]
 260:	5f6f6970 	svcpl	0x006f6970
 264:	30726c63 	rsbscc	r6, r2, r3, ror #24
 268:	69706700 	ldmdbvs	r0!, {r8, r9, sl, sp, lr}^
 26c:	65735f6f 	ldrbvs	r5, [r3, #-3951]!	; 0xfffff091
 270:	76003074 			; <UNDEFINED> instruction: 0x76003074
 274:	64696c61 	strbtvs	r6, [r9], #-3169	; 0xfffff39f
 278:	6e69705f 	mcrvs	0, 3, r7, cr9, cr15, {2}
 27c:	6e697500 	cdpvs	5, 6, cr7, cr9, cr0, {0}
 280:	72747074 	rsbsvc	r7, r4, #116	; 0x74
 284:	6700745f 	smlsdvs	r0, pc, r4, r7	; <UNPREDICTABLE>
 288:	5f6f6970 	svcpl	0x006f6970
 28c:	6c657366 	stclvs	3, cr7, [r5], #-408	; 0xfffffe68
 290:	50470030 	subpl	r0, r7, r0, lsr r0
 294:	465f4f49 	ldrbmi	r4, [pc], -r9, asr #30
 298:	5f434e55 	svcpl	0x00434e55
 29c:	5054554f 	subspl	r5, r4, pc, asr #10
 2a0:	44005455 	strmi	r5, [r0], #-1109	; 0xfffffbab
 2a4:	565f5645 	ldrbpl	r5, [pc], -r5, asr #12
 2a8:	32334c41 	eorscc	r4, r3, #16640	; 0x4100
 2ac:	54555000 	ldrbpl	r5, [r5], #-0
 2b0:	47003233 	smladxmi	r0, r3, r2, r3
 2b4:	32335445 	eorscc	r5, r3, #1157627904	; 0x45000000
 2b8:	49504700 	ldmdbmi	r0, {r8, r9, sl, lr}^
 2bc:	55465f4f 	strbpl	r5, [r6, #-3919]	; 0xfffff0b1
 2c0:	415f434e 	cmpmi	pc, lr, asr #6
 2c4:	0030544c 	eorseq	r5, r0, ip, asr #8
 2c8:	6d6f682f 	stclvs	8, cr6, [pc, #-188]!	; 214 <__code_start__-0x7dec>
 2cc:	65622f65 	strbvs	r2, [r2, #-3941]!	; 0xfffff09b
 2d0:	73632f6e 	cmnvc	r3, #440	; 0x1b8
 2d4:	65303431 	ldrvs	r3, [r0, #-1073]!	; 0xfffffbcf
 2d8:	3173632f 	cmncc	r3, pc, lsr #6
 2dc:	2d653034 	stclcs	0, cr3, [r5, #-208]!	; 0xffffff30
 2e0:	69773232 	ldmdbvs	r7!, {r1, r4, r5, r9, ip, sp}^
 2e4:	696c2f6e 	stmdbvs	ip!, {r1, r2, r3, r5, r6, r8, r9, sl, fp, sp}^
 2e8:	00697062 	rsbeq	r7, r9, r2, rrx
 2ec:	4f495047 	svcmi	0x00495047
 2f0:	4e55465f 	mrcmi	6, 2, r4, cr5, cr15, {2}
 2f4:	4c415f43 	mcrrmi	15, 4, r5, r1, cr3
 2f8:	47003254 	smlsdmi	r0, r4, r2, r3
 2fc:	5f4f4950 	svcpl	0x004f4950
 300:	434e5546 	movtmi	r5, #58694	; 0xe546
 304:	544c415f 	strbpl	r4, [ip], #-351	; 0xfffffea1
 308:	50470033 	subpl	r0, r7, r3, lsr r0
 30c:	465f4f49 	ldrbmi	r4, [pc], -r9, asr #30
 310:	5f434e55 	svcpl	0x00434e55
 314:	35544c41 	ldrbcc	r4, [r4, #-3137]	; 0xfffff3bf
 318:	732f2e00 			; <UNDEFINED> instruction: 0x732f2e00
 31c:	672f6372 			; <UNDEFINED> instruction: 0x672f6372
 320:	2e6f6970 			; <UNDEFINED> instruction: 0x2e6f6970
 324:	70670063 	rsbvc	r0, r7, r3, rrx
 328:	665f6f69 	ldrbvs	r6, [pc], -r9, ror #30
 32c:	5f636e75 	svcpl	0x00636e75
 330:	65740074 	ldrbvs	r0, [r4, #-116]!	; 0xffffff8c
 334:	6700706d 	strvs	r7, [r0, -sp, rrx]
 338:	5f6f6970 	svcpl	0x006f6970
 33c:	3076656c 	rsbscc	r6, r6, ip, ror #10
 340:	49504700 	ldmdbmi	r0, {r8, r9, sl, lr}^
 344:	55465f4f 	strbpl	r5, [r6, #-3919]	; 0xfffff0b1
 348:	415f434e 	cmpmi	pc, lr, asr #6
 34c:	0031544c 	eorseq	r5, r1, ip, asr #8
 350:	6f697067 	svcvs	0x00697067
 354:	6573665f 	ldrbvs	r6, [r3, #-1631]!	; 0xfffff9a1
 358:	5047006c 	subpl	r0, r7, ip, rrx
 35c:	465f4f49 	ldrbmi	r4, [pc], -r9, asr #30
 360:	5f434e55 	svcpl	0x00434e55
 364:	34544c41 	ldrbcc	r4, [r4], #-3137	; 0xfffff3bf
 368:	66666f00 	strbtvs	r6, [r6], -r0, lsl #30
 36c:	00746573 	rsbseq	r6, r4, r3, ror r5
 370:	4f495047 	svcmi	0x00495047
 374:	4e55465f 	mrcmi	6, 2, r4, cr5, cr15, {2}
 378:	4e495f43 	cdpmi	15, 4, cr5, cr9, cr3, {2}
 37c:	00545550 	subseq	r5, r4, r0, asr r5
 380:	6f697067 	svcvs	0x00697067
 384:	7465735f 	strbtvc	r7, [r5], #-863	; 0xfffffca1
 388:	6e75665f 	mrcvs	6, 3, r6, cr5, cr15, {2}
 38c:	6f697463 	svcvs	0x00697463
 390:	7067006e 	rsbvc	r0, r7, lr, rrx
 394:	665f6f69 	ldrbvs	r6, [pc], -r9, ror #30
 398:	5f6c6573 	svcpl	0x006c6573
 39c:	00676572 	rsbeq	r6, r7, r2, ror r5
 3a0:	73677261 	cmnvc	r7, #268435462	; 0x10000006
 3a4:	5f617600 	svcpl	0x00617600
 3a8:	6e697270 	mcrvs	2, 3, r7, cr9, cr0, {3}
 3ac:	5f006b74 	svcpl	0x00006b74
 3b0:	756e675f 	strbvc	r6, [lr, #-1887]!	; 0xfffff8a1
 3b4:	61765f63 	cmnvs	r6, r3, ror #30
 3b8:	73696c5f 	cmnvc	r9, #24320	; 0x5f00
 3bc:	5f5f0074 	svcpl	0x005f0074
 3c0:	2e007061 	cdpcs	0, 0, cr7, cr0, cr1, {3}
 3c4:	62696c2f 	rsbvs	r6, r9, #12032	; 0x2f00
 3c8:	72702f63 	rsbsvc	r2, r0, #396	; 0x18c
 3cc:	6b746e69 	blvs	1d1bd78 <__bss_end__+0x1d12710>
 3d0:	5f00632e 	svcpl	0x0000632e
 3d4:	5f61765f 	svcpl	0x0061765f
 3d8:	7473696c 	ldrbtvc	r6, [r3], #-2412	; 0xfffff694
 3dc:	746e6900 	strbtvc	r6, [lr], #-2304	; 0xfffff700
 3e0:	616e7265 	cmnvs	lr, r5, ror #4
 3e4:	75705f6c 	ldrbvc	r5, [r0, #-3948]!	; 0xfffff094
 3e8:	2e006b74 	vmovcs.16	d0[1], r6
 3ec:	62696c2f 	rsbvs	r6, r9, #12032	; 0x2f00
 3f0:	75702f63 	ldrbvc	r2, [r0, #-3939]!	; 0xfffff09d
 3f4:	632e6b74 			; <UNDEFINED> instruction: 0x632e6b74
 3f8:	746e6900 	strbtvc	r6, [lr], #-2304	; 0xfffff700
 3fc:	616e7265 	cmnvs	lr, r5, ror #4
 400:	75705f6c 	ldrbvc	r5, [r0, #-3948]!	; 0xfffff094
 404:	61686374 	smcvs	34356	; 0x8634
 408:	70720072 	rsbsvc	r0, r2, r2, ror r0
 40c:	65735f69 	ldrbvs	r5, [r3, #-3945]!	; 0xfffff097
 410:	75705f74 	ldrbvc	r5, [r0, #-3956]!	; 0xfffff08c
 414:	2e006374 	mcrcs	3, 0, r6, cr0, cr4, {3}
 418:	62696c2f 	rsbvs	r6, r9, #12032	; 0x2f00
 41c:	75702f63 	ldrbvc	r2, [r0, #-3939]!	; 0xfffff09d
 420:	61686374 	smcvs	34356	; 0x8634
 424:	00632e72 	rsbeq	r2, r3, r2, ror lr
 428:	74726175 	ldrbtvc	r6, [r2], #-373	; 0xfffffe8b
 42c:	7475705f 	ldrbtvc	r7, [r5], #-95	; 0xffffffa1
 430:	70720063 	rsbsvc	r0, r2, r3, rrx
 434:	65725f69 	ldrbvs	r5, [r2, #-3945]!	; 0xfffff097
 438:	5f746573 	svcpl	0x00746573
 43c:	63747570 	cmnvs	r4, #112, 10	; 0x1c000000
 440:	69707200 	ldmdbvs	r0!, {r9, ip, sp, lr}^
 444:	6265725f 	rsbvs	r7, r5, #-268435451	; 0xf0000005
 448:	00746f6f 	rsbseq	r6, r4, pc, ror #30
 44c:	616c6564 	cmnvs	ip, r4, ror #10
 450:	736d5f79 	cmnvc	sp, #484	; 0x1e4
 454:	732f2e00 			; <UNDEFINED> instruction: 0x732f2e00
 458:	66666174 			; <UNDEFINED> instruction: 0x66666174
 45c:	6372732d 	cmnvs	r2, #-1275068416	; 0xb4000000
 460:	656c632f 	strbvs	r6, [ip, #-815]!	; 0xfffffcd1
 464:	722d6e61 	eorvc	r6, sp, #1552	; 0x610
 468:	6f6f6265 	svcvs	0x006f6265
 46c:	00632e74 	rsbeq	r2, r3, r4, ror lr
 470:	74726175 	ldrbtvc	r6, [r2], #-373	; 0xfffffe8b
 474:	756c665f 	strbvc	r6, [ip, #-1631]!	; 0xfffff9a1
 478:	745f6873 	ldrbvc	r6, [pc], #-2163	; 480 <__code_start__-0x7b80>
 47c:	5f5f0078 	svcpl	0x005f0078
 480:	5f737362 	svcpl	0x00737362
 484:	72617473 	rsbvc	r7, r1, #1929379840	; 0x73000000
 488:	005f5f74 	subseq	r5, pc, r4, ror pc	; <UNPREDICTABLE>
 48c:	7473635f 	ldrbtvc	r6, [r3], #-863	; 0xfffffca1
 490:	00747261 	rsbseq	r7, r4, r1, ror #4
 494:	5f737362 	svcpl	0x00737362
 498:	00646e65 	rsbeq	r6, r4, r5, ror #28
 49c:	74726175 	ldrbtvc	r6, [r2], #-373	; 0xfffffe8b
 4a0:	696e695f 	stmdbvs	lr!, {r0, r1, r2, r3, r4, r6, r8, fp, sp, lr}^
 4a4:	75630074 	strbvc	r0, [r3, #-116]!	; 0xffffff8c
 4a8:	6d6f7473 	cfstrdvs	mvd7, [pc, #-460]!	; 2e4 <__code_start__-0x7d1c>
 4ac:	616f6c5f 	cmnvs	pc, pc, asr ip	; <UNPREDICTABLE>
 4b0:	00726564 	rsbseq	r6, r2, r4, ror #10
 4b4:	74732f2e 	ldrbtvc	r2, [r3], #-3886	; 0xfffff0d2
 4b8:	2d666661 	stclcs	6, cr6, [r6, #-388]!	; 0xfffffe7c
 4bc:	2f637273 	svccs	0x00637273
 4c0:	61747363 	cmnvs	r4, r3, ror #6
 4c4:	632e7472 			; <UNDEFINED> instruction: 0x632e7472
 4c8:	625f5f00 	subsvs	r5, pc, #0, 30
 4cc:	655f7373 	ldrbvs	r7, [pc, #-883]	; 161 <__code_start__-0x7e9f>
 4d0:	5f5f646e 	svcpl	0x005f646e
 4d4:	62657200 	rsbvs	r7, r5, #0, 4
 4d8:	5f746f6f 	svcpl	0x00746f6f
 4dc:	6c6c6163 	stfvse	f6, [ip], #-396	; 0xfffffe74
 4e0:	0074756f 	rsbseq	r7, r4, pc, ror #10
 4e4:	575f4d50 			; <UNDEFINED> instruction: 0x575f4d50
 4e8:	00474f44 	subeq	r4, r7, r4, asr #30
 4ec:	5f746573 	svcpl	0x00746573
 4f0:	72657375 	rsbvc	r7, r5, #-738197503	; 0xd4000001
 4f4:	76656c5f 			; <UNDEFINED> instruction: 0x76656c5f
 4f8:	2e006c65 	cdpcs	12, 0, cr6, cr0, cr5, {3}
 4fc:	6174732f 	cmnvs	r4, pc, lsr #6
 500:	732d6666 			; <UNDEFINED> instruction: 0x732d6666
 504:	722f6372 	eorvc	r6, pc, #-939524095	; 0xc8000001
 508:	6f6f6265 	svcvs	0x006f6265
 50c:	00632e74 	rsbeq	r2, r3, r4, ror lr
 510:	505f4d50 	subspl	r4, pc, r0, asr sp	; <UNPREDICTABLE>
 514:	57535341 	ldrbpl	r5, [r3, -r1, asr #6]
 518:	0044524f 	subeq	r5, r4, pc, asr #4
 51c:	755f7461 	ldrbvc	r7, [pc, #-1121]	; c3 <__code_start__-0x7f3d>
 520:	5f726573 	svcpl	0x00726573
 524:	6576656c 	ldrbvs	r6, [r6, #-1388]!	; 0xfffffa94
 528:	4d50006c 	ldclmi	0, cr0, [r0, #-432]	; 0xfffffe50
 52c:	5453525f 	ldrbpl	r5, [r3], #-607	; 0xfffffda1
 530:	52575f43 	subspl	r5, r7, #268	; 0x10c
 534:	5f474643 	svcpl	0x00474643
 538:	4c4c5546 	cfstr64mi	mvdx5, [ip], {70}	; 0x46
 53c:	5345525f 	movtpl	r5, #21087	; 0x525f
 540:	50005445 	andpl	r5, r0, r5, asr #8
 544:	53525f4d 	cmppl	r2, #308	; 0x134
 548:	63004354 	movwvs	r4, #852	; 0x354
 54c:	00727370 	rsbseq	r7, r2, r0, ror r3
 550:	74732f2e 	ldrbtvc	r2, [r3], #-3886	; 0xfffff0d2
 554:	2d666661 	stclcs	6, cr6, [r6, #-388]!	; 0xfffffe7c
 558:	2f637273 	svccs	0x00637273
 55c:	61666564 	cmnvs	r6, r4, ror #10
 560:	2d746c75 	ldclcs	12, cr6, [r4, #-468]!	; 0xfffffe2c
 564:	6f626572 	svcvs	0x00626572
 568:	632d746f 			; <UNDEFINED> instruction: 0x632d746f
 56c:	6f6c6c61 	svcvs	0x006c6c61
 570:	632e7475 			; <UNDEFINED> instruction: 0x632e7475
 574:	732f2e00 			; <UNDEFINED> instruction: 0x732f2e00
 578:	66666174 			; <UNDEFINED> instruction: 0x66666174
 57c:	6372732d 	cmnvs	r2, #-1275068416	; 0xb4000000
 580:	7375632f 	cmnvc	r5, #-1140850688	; 0xbc000000
 584:	2d6d6f74 	stclcs	15, cr6, [sp, #-464]!	; 0xfffffe30
 588:	64616f6c 	strbtvs	r6, [r1], #-3948	; 0xfffff094
 58c:	632e7265 			; <UNDEFINED> instruction: 0x632e7265
 590:	76656400 	strbtvc	r6, [r5], -r0, lsl #8
 594:	7261625f 	rsbvc	r6, r1, #-268435451	; 0xf0000005
 598:	72656972 	rsbvc	r6, r5, #1867776	; 0x1c8000
 59c:	6c656400 	cfstrdvs	mvd6, [r5], #-0
 5a0:	735f7961 	cmpvc	pc, #1589248	; 0x184000
 5a4:	2e006365 	cdpcs	3, 0, cr6, cr0, cr5, {3}
 5a8:	6174732f 	cmnvs	r4, pc, lsr #6
 5ac:	732d6666 			; <UNDEFINED> instruction: 0x732d6666
 5b0:	742f6372 	strtvc	r6, [pc], #-882	; 5b8 <__code_start__-0x7a48>
 5b4:	72656d69 	rsbvc	r6, r5, #6720	; 0x1a40
 5b8:	7400632e 	strvc	r6, [r0], #-814	; 0xfffffcd2
 5bc:	72656d69 	rsbvc	r6, r5, #6720	; 0x1a40
 5c0:	7465675f 	strbtvc	r6, [r5], #-1887	; 0xfffff8a1
 5c4:	6573755f 	ldrbvs	r7, [r3, #-1375]!	; 0xfffffaa1
 5c8:	69740063 	ldmdbvs	r4!, {r0, r1, r5, r6}^
 5cc:	5f72656d 	svcpl	0x0072656d
 5d0:	5f746567 	svcpl	0x00746567
 5d4:	63657375 	cmnvs	r5, #-738197503	; 0xd4000001
 5d8:	7761725f 			; <UNDEFINED> instruction: 0x7761725f
 5dc:	72617500 	rsbvc	r7, r1, #0, 10
 5e0:	61635f74 	smcvs	13812	; 0x35f4
 5e4:	65675f6e 	strbvs	r5, [r7, #-3950]!	; 0xfffff092
 5e8:	75006374 	strvc	r6, [r0, #-884]	; 0xfffffc8c
 5ec:	5f747261 	svcpl	0x00747261
 5f0:	695f7874 	ldmdbvs	pc, {r2, r4, r5, r6, fp, ip, sp, lr}^	; <UNPREDICTABLE>
 5f4:	6d655f73 	stclvs	15, cr5, [r5, #-460]!	; 0xfffffe34
 5f8:	00797470 	rsbseq	r7, r9, r0, ror r4
 5fc:	74726175 	ldrbtvc	r6, [r2], #-373	; 0xfffffe8b
 600:	7465675f 	strbtvc	r6, [r5], #-1887	; 0xfffff8a1
 604:	61750063 	cmnvs	r5, r3, rrx
 608:	635f7472 	cmpvs	pc, #1912602624	; 0x72000000
 60c:	705f6e61 	subsvc	r6, pc, r1, ror #28
 610:	00637475 	rsbeq	r7, r3, r5, ror r4
 614:	74726175 	ldrbtvc	r6, [r2], #-373	; 0xfffffe8b
 618:	7369645f 	cmnvc	r9, #1593835520	; 0x5f000000
 61c:	656c6261 	strbvs	r6, [ip, #-609]!	; 0xfffffd9f
 620:	72617500 	rsbvc	r7, r1, #0, 10
 624:	61685f74 	smcvs	34292	; 0x85f4
 628:	61645f73 	smcvs	17907	; 0x45f3
 62c:	2e006174 	mcrcs	1, 0, r6, cr0, cr4, {3}
 630:	6372732f 	cmnvs	r2, #-1140850688	; 0xbc000000
 634:	7261752f 	rsbvc	r7, r1, #197132288	; 0xbc00000
 638:	00632e74 	rsbeq	r2, r3, r4, ror lr
 63c:	74726175 	ldrbtvc	r6, [r2], #-373	; 0xfffffe8b
 640:	7465675f 	strbtvc	r6, [r5], #-1887	; 0xfffff8a1
 644:	73615f63 	cmnvc	r1, #396	; 0x18c
 648:	00636e79 	rsbeq	r6, r3, r9, ror lr
 64c:	69647369 	stmdbvs	r4!, {r0, r3, r5, r6, r8, r9, ip, sp, lr}^
 650:	00746967 	rsbseq	r6, r4, r7, ror #18
 654:	746e6975 	strbtvc	r6, [lr], #-2421	; 0xfffff68b
 658:	745f3436 	ldrbvc	r3, [pc], #-1078	; 660 <__code_start__-0x79a0>
 65c:	6c2f2e00 	stcvs	14, cr2, [pc], #-0	; 664 <__code_start__-0x799c>
 660:	2f636269 	svccs	0x00636269
 664:	702d6176 	eorvc	r6, sp, r6, ror r1
 668:	746e6972 	strbtvc	r6, [lr], #-2418	; 0xfffff68e
 66c:	00632e6b 	rsbeq	r2, r3, fp, ror #28
 670:	6f635f5f 	svcvs	0x00635f5f
 674:	735f6564 	cmpvc	pc, #100, 10	; 0x19000000
 678:	74726174 	ldrbtvc	r6, [r2], #-372	; 0xfffffe8c
 67c:	77005f5f 	smlsdvc	r0, pc, pc, r5	; <UNPREDICTABLE>
 680:	68746469 	ldmdavs	r4!, {r0, r3, r5, r6, sl, sp, lr}^
 684:	645f5f00 	ldrbvs	r5, [pc], #-3840	; 68c <__code_start__-0x7974>
 688:	5f617461 	svcpl	0x00617461
 68c:	5f646e65 	svcpl	0x00646e65
 690:	7570005f 	ldrbvc	r0, [r0, #-95]!	; 0xffffffa1
 694:	665f6374 			; <UNDEFINED> instruction: 0x665f6374
 698:	5f5f0070 	svcpl	0x005f0070
 69c:	70616568 	rsbvc	r6, r1, r8, ror #10
 6a0:	6174735f 	cmnvs	r4, pc, asr r3
 6a4:	5f5f7472 	svcpl	0x005f7472
 6a8:	69707200 	ldmdbvs	r0!, {r9, ip, sp, lr}^
 6ac:	7465735f 	strbtvc	r7, [r5], #-863	; 0xfffffca1
 6b0:	74756f5f 	ldrbtvc	r6, [r5], #-3935	; 0xfffff0a1
 6b4:	00747570 	rsbseq	r7, r4, r0, ror r5
 6b8:	5f746d66 	svcpl	0x00746d66
 6bc:	72617473 	rsbvc	r7, r1, #1929379840	; 0x73000000
 6c0:	74730074 	ldrbtvc	r0, [r3], #-116	; 0xffffff8c
 6c4:	74616372 	strbtvc	r6, [r1], #-882	; 0xfffffc8e
 6c8:	72747300 	rsbsvc	r7, r4, #0, 6
 6cc:	00797063 	rsbseq	r7, r9, r3, rrx
 6d0:	5f67656e 	svcpl	0x0067656e
 6d4:	5f5f0070 	svcpl	0x005f0070
 6d8:	65646f63 	strbvs	r6, [r4, #-3939]!	; 0xfffff09d
 6dc:	646e655f 	strbtvs	r6, [lr], #-1375	; 0xfffffaa1
 6e0:	65005f5f 	strvs	r5, [r0, #-3935]	; 0xfffff0a1
 6e4:	0074696d 	rsbseq	r6, r4, sp, ror #18
 6e8:	73747570 	cmnvc	r4, #112, 10	; 0x1c000000
 6ec:	0070665f 	rsbseq	r6, r0, pc, asr r6
 6f0:	65766572 	ldrbvs	r6, [r6, #-1394]!	; 0xfffffa8e
 6f4:	00657372 	rsbeq	r7, r5, r2, ror r3
 6f8:	63727473 	cmnvs	r2, #1929379840	; 0x73000000
 6fc:	5f00706d 	svcpl	0x0000706d
 700:	7461645f 	strbtvc	r6, [r1], #-1119	; 0xfffffba1
 704:	74735f61 	ldrbtvc	r5, [r3], #-3937	; 0xfffff09f
 708:	5f747261 	svcpl	0x00747261
 70c:	5f5f005f 	svcpl	0x005f005f
 710:	676f7270 			; <UNDEFINED> instruction: 0x676f7270
 714:	646e655f 	strbtvs	r6, [lr], #-1375	; 0xfffffaa1
 718:	6e005f5f 	mcrvs	15, 0, r5, cr0, cr15, {2}
 71c:	00316d75 	eorseq	r6, r1, r5, ror sp
 720:	6e727473 	mrcvs	4, 3, r7, cr2, cr3, {3}
 724:	00706d63 	rsbseq	r6, r0, r3, ror #26
 728:	65736162 	ldrbvs	r6, [r3, #-354]!	; 0xfffffe9e
 72c:	67697300 	strbvs	r7, [r9, -r0, lsl #6]!
 730:	5f64656e 	svcpl	0x0064656e
 734:	2f2e0070 	svccs	0x002e0070
 738:	6362696c 	cmnvs	r2, #108, 18	; 0x1b0000
 73c:	7274732f 	rsbsvc	r7, r4, #-1140850688	; 0xbc000000
 740:	2e706d63 	cdpcs	13, 7, cr6, cr0, cr3, {3}
 744:	2f2e0063 	svccs	0x002e0063
 748:	6362696c 	cmnvs	r2, #108, 18	; 0x1b0000
 74c:	7274732f 	rsbsvc	r7, r4, #-1140850688	; 0xbc000000
 750:	2e797063 	cdpcs	0, 7, cr7, cr9, cr3, {3}
 754:	2f2e0063 	svccs	0x002e0063
 758:	6362696c 	cmnvs	r2, #108, 18	; 0x1b0000
 75c:	7274732f 	rsbsvc	r7, r4, #-1140850688	; 0xbc000000
 760:	2e746163 	rpwcssz	f6, f4, f3
 764:	65640063 	strbvs	r0, [r4, #-99]!	; 0xffffff9d
 768:	73007473 	movwvc	r7, #1139	; 0x473
 76c:	5f657a69 	svcpl	0x00657a69
 770:	2f2e0074 	svccs	0x002e0074
 774:	6362696c 	cmnvs	r2, #108, 18	; 0x1b0000
 778:	7274732f 	rsbsvc	r7, r4, #-1140850688	; 0xbc000000
 77c:	706d636e 	rsbvc	r6, sp, lr, ror #6
 780:	Address 0x0000000000000780 is out of bounds.


Disassembly of section .debug_frame:

00000000 <.debug_frame>:
   0:	0000000c 	andeq	r0, r0, ip
   4:	ffffffff 			; <UNDEFINED> instruction: 0xffffffff
   8:	7c020001 	stcvc	0, cr0, [r2], {1}
   c:	000d0c0e 	andeq	r0, sp, lr, lsl #24
  10:	00000014 	andeq	r0, r0, r4, lsl r0
  14:	00000000 	andeq	r0, r0, r0
  18:	00008038 	andeq	r8, r0, r8, lsr r0
  1c:	00000010 	andeq	r0, r0, r0, lsl r0
  20:	84080e42 	strhi	r0, [r8], #-3650	; 0xfffff1be
  24:	00018e02 	andeq	r8, r1, r2, lsl #28
  28:	0000000c 	andeq	r0, r0, ip
  2c:	ffffffff 			; <UNDEFINED> instruction: 0xffffffff
  30:	7c020001 	stcvc	0, cr0, [r2], {1}
  34:	000d0c0e 	andeq	r0, sp, lr, lsl #24
  38:	00000014 	andeq	r0, r0, r4, lsl r0
  3c:	00000028 	andeq	r0, r0, r8, lsr #32
  40:	00008048 	andeq	r8, r0, r8, asr #32
  44:	00000028 	andeq	r0, r0, r8, lsr #32
  48:	84080e42 	strhi	r0, [r8], #-3650	; 0xfffff1be
  4c:	00018e02 	andeq	r8, r1, r2, lsl #28
  50:	0000001c 	andeq	r0, r0, ip, lsl r0
  54:	00000028 	andeq	r0, r0, r8, lsr #32
  58:	00008070 	andeq	r8, r0, r0, ror r0
  5c:	00000038 	andeq	r0, r0, r8, lsr r0
  60:	84180e42 	ldrhi	r0, [r8], #-3650	; 0xfffff1be
  64:	86058506 	strhi	r8, [r5], -r6, lsl #10
  68:	88038704 	stmdahi	r3, {r2, r8, r9, sl, pc}
  6c:	00018e02 	andeq	r8, r1, r2, lsl #28
  70:	00000014 	andeq	r0, r0, r4, lsl r0
  74:	00000028 	andeq	r0, r0, r8, lsr #32
  78:	000080a8 	andeq	r8, r0, r8, lsr #1
  7c:	00000040 	andeq	r0, r0, r0, asr #32
  80:	84080e42 	strhi	r0, [r8], #-3650	; 0xfffff1be
  84:	00018e02 	andeq	r8, r1, r2, lsl #28
  88:	00000014 	andeq	r0, r0, r4, lsl r0
  8c:	00000028 	andeq	r0, r0, r8, lsr #32
  90:	000080e8 	andeq	r8, r0, r8, ror #1
  94:	00000028 	andeq	r0, r0, r8, lsr #32
  98:	84080e42 	strhi	r0, [r8], #-3650	; 0xfffff1be
  9c:	00018e02 	andeq	r8, r1, r2, lsl #28
  a0:	00000014 	andeq	r0, r0, r4, lsl r0
  a4:	00000028 	andeq	r0, r0, r8, lsr #32
  a8:	00008110 	andeq	r8, r0, r0, lsl r1
  ac:	0000002c 	andeq	r0, r0, ip, lsr #32
  b0:	84080e42 	strhi	r0, [r8], #-3650	; 0xfffff1be
  b4:	00018e02 	andeq	r8, r1, r2, lsl #28
  b8:	00000018 	andeq	r0, r0, r8, lsl r0
  bc:	00000028 	andeq	r0, r0, r8, lsr #32
  c0:	0000813c 	andeq	r8, r0, ip, lsr r1
  c4:	00000074 	andeq	r0, r0, r4, ror r0
  c8:	84100e42 	ldrhi	r0, [r0], #-3650	; 0xfffff1be
  cc:	86038504 	strhi	r8, [r3], -r4, lsl #10
  d0:	00018e02 	andeq	r8, r1, r2, lsl #28
  d4:	00000018 	andeq	r0, r0, r8, lsl r0
  d8:	00000028 	andeq	r0, r0, r8, lsr #32
  dc:	000081b0 			; <UNDEFINED> instruction: 0x000081b0
  e0:	00000094 	muleq	r0, r4, r0
  e4:	84100e42 	ldrhi	r0, [r0], #-3650	; 0xfffff1be
  e8:	86038504 	strhi	r8, [r3], -r4, lsl #10
  ec:	00018e02 	andeq	r8, r1, r2, lsl #28
  f0:	00000014 	andeq	r0, r0, r4, lsl r0
  f4:	00000028 	andeq	r0, r0, r8, lsr #32
  f8:	00008244 	andeq	r8, r0, r4, asr #4
  fc:	00000078 	andeq	r0, r0, r8, ror r0
 100:	84080e42 	strhi	r0, [r8], #-3650	; 0xfffff1be
 104:	00018e02 	andeq	r8, r1, r2, lsl #28
 108:	0000000c 	andeq	r0, r0, ip
 10c:	ffffffff 			; <UNDEFINED> instruction: 0xffffffff
 110:	7c020001 	stcvc	0, cr0, [r2], {1}
 114:	000d0c0e 	andeq	r0, sp, lr, lsl #24
 118:	0000000c 	andeq	r0, r0, ip
 11c:	00000108 	andeq	r0, r0, r8, lsl #2
 120:	000082bc 			; <UNDEFINED> instruction: 0x000082bc
 124:	00000014 	andeq	r0, r0, r4, lsl r0
 128:	00000018 	andeq	r0, r0, r8, lsl r0
 12c:	00000108 	andeq	r0, r0, r8, lsl #2
 130:	000082d0 	ldrdeq	r8, [r0], -r0
 134:	00000068 	andeq	r0, r0, r8, rrx
 138:	84100e42 	ldrhi	r0, [r0], #-3650	; 0xfffff1be
 13c:	86038504 	strhi	r8, [r3], -r4, lsl #10
 140:	00018e02 	andeq	r8, r1, r2, lsl #28
 144:	00000014 	andeq	r0, r0, r4, lsl r0
 148:	00000108 	andeq	r0, r0, r8, lsl #2
 14c:	00008338 	andeq	r8, r0, r8, lsr r3
 150:	00000010 	andeq	r0, r0, r0, lsl r0
 154:	84080e42 	strhi	r0, [r8], #-3650	; 0xfffff1be
 158:	00018e02 	andeq	r8, r1, r2, lsl #28
 15c:	00000014 	andeq	r0, r0, r4, lsl r0
 160:	00000108 	andeq	r0, r0, r8, lsl #2
 164:	00008348 	andeq	r8, r0, r8, asr #6
 168:	0000002c 	andeq	r0, r0, ip, lsr #32
 16c:	84080e42 	strhi	r0, [r8], #-3650	; 0xfffff1be
 170:	00018e02 	andeq	r8, r1, r2, lsl #28
 174:	00000014 	andeq	r0, r0, r4, lsl r0
 178:	00000108 	andeq	r0, r0, r8, lsl #2
 17c:	00008374 	andeq	r8, r0, r4, ror r3
 180:	0000002c 	andeq	r0, r0, ip, lsr #32
 184:	84080e42 	strhi	r0, [r8], #-3650	; 0xfffff1be
 188:	00018e02 	andeq	r8, r1, r2, lsl #28
 18c:	00000014 	andeq	r0, r0, r4, lsl r0
 190:	00000108 	andeq	r0, r0, r8, lsl #2
 194:	000083a0 	andeq	r8, r0, r0, lsr #7
 198:	0000001c 	andeq	r0, r0, ip, lsl r0
 19c:	84080e42 	strhi	r0, [r8], #-3650	; 0xfffff1be
 1a0:	00018e02 	andeq	r8, r1, r2, lsl #28
 1a4:	00000014 	andeq	r0, r0, r4, lsl r0
 1a8:	00000108 	andeq	r0, r0, r8, lsl #2
 1ac:	000083bc 			; <UNDEFINED> instruction: 0x000083bc
 1b0:	00000010 	andeq	r0, r0, r0, lsl r0
 1b4:	84080e42 	strhi	r0, [r8], #-3650	; 0xfffff1be
 1b8:	00018e02 	andeq	r8, r1, r2, lsl #28
 1bc:	00000014 	andeq	r0, r0, r4, lsl r0
 1c0:	00000108 	andeq	r0, r0, r8, lsl #2
 1c4:	000083cc 	andeq	r8, r0, ip, asr #7
 1c8:	00000034 	andeq	r0, r0, r4, lsr r0
 1cc:	84080e42 	strhi	r0, [r8], #-3650	; 0xfffff1be
 1d0:	00018e02 	andeq	r8, r1, r2, lsl #28
 1d4:	0000000c 	andeq	r0, r0, ip
 1d8:	ffffffff 			; <UNDEFINED> instruction: 0xffffffff
 1dc:	7c020001 	stcvc	0, cr0, [r2], {1}
 1e0:	000d0c0e 	andeq	r0, sp, lr, lsl #24
 1e4:	00000034 	andeq	r0, r0, r4, lsr r0
 1e8:	000001d4 	ldrdeq	r0, [r0], -r4
 1ec:	00008400 	andeq	r8, r0, r0, lsl #8
 1f0:	00000058 	andeq	r0, r0, r8, asr r0
 1f4:	80100e42 	andshi	r0, r0, r2, asr #28
 1f8:	82038104 	andhi	r8, r3, #4, 2
 1fc:	42018302 	andmi	r8, r1, #134217728	; 0x8000000
 200:	07841c0e 	streq	r1, [r4, lr, lsl #24]
 204:	058e0685 	streq	r0, [lr, #1669]	; 0x685
 208:	5c280e42 	stcpl	14, cr0, [r8], #-264	; 0xfffffef8
 20c:	ce421c0e 	cdpgt	12, 4, cr1, cr2, cr14, {0}
 210:	100ec4c5 	andne	ip, lr, r5, asr #9
 214:	c1c2c342 	bicgt	ip, r2, r2, asr #6
 218:	00000ec0 	andeq	r0, r0, r0, asr #29
 21c:	0000000c 	andeq	r0, r0, ip
 220:	ffffffff 			; <UNDEFINED> instruction: 0xffffffff
 224:	7c020001 	stcvc	0, cr0, [r2], {1}
 228:	000d0c0e 	andeq	r0, sp, lr, lsl #24
 22c:	00000014 	andeq	r0, r0, r4, lsl r0
 230:	0000021c 	andeq	r0, r0, ip, lsl r2
 234:	00008458 	andeq	r8, r0, r8, asr r4
 238:	00000034 	andeq	r0, r0, r4, lsr r0
 23c:	84080e42 	strhi	r0, [r8], #-3650	; 0xfffff1be
 240:	00018e02 	andeq	r8, r1, r2, lsl #28
 244:	0000000c 	andeq	r0, r0, ip
 248:	ffffffff 			; <UNDEFINED> instruction: 0xffffffff
 24c:	7c020001 	stcvc	0, cr0, [r2], {1}
 250:	000d0c0e 	andeq	r0, sp, lr, lsl #24
 254:	00000014 	andeq	r0, r0, r4, lsl r0
 258:	00000244 	andeq	r0, r0, r4, asr #4
 25c:	0000848c 	andeq	r8, r0, ip, lsl #9
 260:	00000014 	andeq	r0, r0, r4, lsl r0
 264:	84080e42 	strhi	r0, [r8], #-3650	; 0xfffff1be
 268:	00018e02 	andeq	r8, r1, r2, lsl #28
 26c:	0000000c 	andeq	r0, r0, ip
 270:	00000244 	andeq	r0, r0, r4, asr #4
 274:	000084a0 	andeq	r8, r0, r0, lsr #9
 278:	00000018 	andeq	r0, r0, r8, lsl r0
 27c:	0000000c 	andeq	r0, r0, ip
 280:	00000244 	andeq	r0, r0, r4, asr #4
 284:	000084b8 			; <UNDEFINED> instruction: 0x000084b8
 288:	00000010 	andeq	r0, r0, r0, lsl r0
 28c:	0000000c 	andeq	r0, r0, ip
 290:	ffffffff 			; <UNDEFINED> instruction: 0xffffffff
 294:	7c020001 	stcvc	0, cr0, [r2], {1}
 298:	000d0c0e 	andeq	r0, sp, lr, lsl #24
 29c:	00000014 	andeq	r0, r0, r4, lsl r0
 2a0:	0000028c 	andeq	r0, r0, ip, lsl #5
 2a4:	000084c8 	andeq	r8, r0, r8, asr #9
 2a8:	0000002c 	andeq	r0, r0, ip, lsr #32
 2ac:	84080e42 	strhi	r0, [r8], #-3650	; 0xfffff1be
 2b0:	00018e02 	andeq	r8, r1, r2, lsl #28
 2b4:	0000000c 	andeq	r0, r0, ip
 2b8:	ffffffff 			; <UNDEFINED> instruction: 0xffffffff
 2bc:	7c020001 	stcvc	0, cr0, [r2], {1}
 2c0:	000d0c0e 	andeq	r0, sp, lr, lsl #24
 2c4:	00000014 	andeq	r0, r0, r4, lsl r0
 2c8:	000002b4 			; <UNDEFINED> instruction: 0x000002b4
 2cc:	000084f4 	strdeq	r8, [r0], -r4
 2d0:	0000003c 	andeq	r0, r0, ip, lsr r0
 2d4:	84080e42 	strhi	r0, [r8], #-3650	; 0xfffff1be
 2d8:	00018e02 	andeq	r8, r1, r2, lsl #28
 2dc:	0000000c 	andeq	r0, r0, ip
 2e0:	ffffffff 			; <UNDEFINED> instruction: 0xffffffff
 2e4:	7c020001 	stcvc	0, cr0, [r2], {1}
 2e8:	000d0c0e 	andeq	r0, sp, lr, lsl #24
 2ec:	0000000c 	andeq	r0, r0, ip
 2f0:	000002dc 	ldrdeq	r0, [r0], -ip
 2f4:	00008530 	andeq	r8, r0, r0, lsr r5
 2f8:	00000018 	andeq	r0, r0, r8, lsl r0
 2fc:	0000000c 	andeq	r0, r0, ip
 300:	000002dc 	ldrdeq	r0, [r0], -ip
 304:	00008548 	andeq	r8, r0, r8, asr #10
 308:	00000014 	andeq	r0, r0, r4, lsl r0
 30c:	00000014 	andeq	r0, r0, r4, lsl r0
 310:	000002dc 	ldrdeq	r0, [r0], -ip
 314:	0000855c 	andeq	r8, r0, ip, asr r5
 318:	00000054 	andeq	r0, r0, r4, asr r0
 31c:	84080e42 	strhi	r0, [r8], #-3650	; 0xfffff1be
 320:	00018e02 	andeq	r8, r1, r2, lsl #28
 324:	0000000c 	andeq	r0, r0, ip
 328:	ffffffff 			; <UNDEFINED> instruction: 0xffffffff
 32c:	7c020001 	stcvc	0, cr0, [r2], {1}
 330:	000d0c0e 	andeq	r0, sp, lr, lsl #24
 334:	0000000c 	andeq	r0, r0, ip
 338:	00000324 	andeq	r0, r0, r4, lsr #6
 33c:	000085b0 			; <UNDEFINED> instruction: 0x000085b0
 340:	00000004 	andeq	r0, r0, r4
 344:	0000000c 	andeq	r0, r0, ip
 348:	ffffffff 			; <UNDEFINED> instruction: 0xffffffff
 34c:	7c020001 	stcvc	0, cr0, [r2], {1}
 350:	000d0c0e 	andeq	r0, sp, lr, lsl #24
 354:	0000000c 	andeq	r0, r0, ip
 358:	00000344 	andeq	r0, r0, r4, asr #6
 35c:	000085b4 			; <UNDEFINED> instruction: 0x000085b4
 360:	00000004 	andeq	r0, r0, r4
 364:	0000000c 	andeq	r0, r0, ip
 368:	ffffffff 			; <UNDEFINED> instruction: 0xffffffff
 36c:	7c020001 	stcvc	0, cr0, [r2], {1}
 370:	000d0c0e 	andeq	r0, sp, lr, lsl #24
 374:	00000014 	andeq	r0, r0, r4, lsl r0
 378:	00000364 	andeq	r0, r0, r4, ror #6
 37c:	000085b8 			; <UNDEFINED> instruction: 0x000085b8
 380:	00000014 	andeq	r0, r0, r4, lsl r0
 384:	84080e42 	strhi	r0, [r8], #-3650	; 0xfffff1be
 388:	00018e02 	andeq	r8, r1, r2, lsl #28
 38c:	00000014 	andeq	r0, r0, r4, lsl r0
 390:	00000364 	andeq	r0, r0, r4, ror #6
 394:	000085cc 	andeq	r8, r0, ip, asr #11
 398:	0000001c 	andeq	r0, r0, ip, lsl r0
 39c:	84080e42 	strhi	r0, [r8], #-3650	; 0xfffff1be
 3a0:	00018e02 	andeq	r8, r1, r2, lsl #28
 3a4:	00000018 	andeq	r0, r0, r8, lsl r0
 3a8:	00000364 	andeq	r0, r0, r4, ror #6
 3ac:	000085e8 	andeq	r8, r0, r8, ror #11
 3b0:	00000024 	andeq	r0, r0, r4, lsr #32
 3b4:	84100e42 	ldrhi	r0, [r0], #-3650	; 0xfffff1be
 3b8:	86038504 	strhi	r8, [r3], -r4, lsl #10
 3bc:	00018e02 	andeq	r8, r1, r2, lsl #28
 3c0:	00000014 	andeq	r0, r0, r4, lsl r0
 3c4:	00000364 	andeq	r0, r0, r4, ror #6
 3c8:	0000860c 	andeq	r8, r0, ip, lsl #12
 3cc:	00000018 	andeq	r0, r0, r8, lsl r0
 3d0:	84080e42 	strhi	r0, [r8], #-3650	; 0xfffff1be
 3d4:	00018e02 	andeq	r8, r1, r2, lsl #28
 3d8:	00000014 	andeq	r0, r0, r4, lsl r0
 3dc:	00000364 	andeq	r0, r0, r4, ror #6
 3e0:	00008624 	andeq	r8, r0, r4, lsr #12
 3e4:	00000018 	andeq	r0, r0, r8, lsl r0
 3e8:	84080e42 	strhi	r0, [r8], #-3650	; 0xfffff1be
 3ec:	00018e02 	andeq	r8, r1, r2, lsl #28
 3f0:	0000000c 	andeq	r0, r0, ip
 3f4:	ffffffff 			; <UNDEFINED> instruction: 0xffffffff
 3f8:	7c020001 	stcvc	0, cr0, [r2], {1}
 3fc:	000d0c0e 	andeq	r0, sp, lr, lsl #24
 400:	00000014 	andeq	r0, r0, r4, lsl r0
 404:	000003f0 	strdeq	r0, [r0], -r0	; <UNPREDICTABLE>
 408:	0000863c 	andeq	r8, r0, ip, lsr r6
 40c:	00000024 	andeq	r0, r0, r4, lsr #32
 410:	84080e42 	strhi	r0, [r8], #-3650	; 0xfffff1be
 414:	00018e02 	andeq	r8, r1, r2, lsl #28
 418:	00000014 	andeq	r0, r0, r4, lsl r0
 41c:	000003f0 	strdeq	r0, [r0], -r0	; <UNPREDICTABLE>
 420:	00008660 	andeq	r8, r0, r0, ror #12
 424:	000000ac 	andeq	r0, r0, ip, lsr #1
 428:	84080e42 	strhi	r0, [r8], #-3650	; 0xfffff1be
 42c:	00018e02 	andeq	r8, r1, r2, lsl #28
 430:	00000014 	andeq	r0, r0, r4, lsl r0
 434:	000003f0 	strdeq	r0, [r0], -r0	; <UNPREDICTABLE>
 438:	0000870c 	andeq	r8, r0, ip, lsl #14
 43c:	00000030 	andeq	r0, r0, r0, lsr r0
 440:	84080e42 	strhi	r0, [r8], #-3650	; 0xfffff1be
 444:	00018e02 	andeq	r8, r1, r2, lsl #28
 448:	00000014 	andeq	r0, r0, r4, lsl r0
 44c:	000003f0 	strdeq	r0, [r0], -r0	; <UNPREDICTABLE>
 450:	0000873c 	andeq	r8, r0, ip, lsr r7
 454:	0000001c 	andeq	r0, r0, ip, lsl r0
 458:	84080e42 	strhi	r0, [r8], #-3650	; 0xfffff1be
 45c:	00018e02 	andeq	r8, r1, r2, lsl #28
 460:	00000014 	andeq	r0, r0, r4, lsl r0
 464:	000003f0 	strdeq	r0, [r0], -r0	; <UNPREDICTABLE>
 468:	00008758 	andeq	r8, r0, r8, asr r7
 46c:	00000030 	andeq	r0, r0, r0, lsr r0
 470:	84080e42 	strhi	r0, [r8], #-3650	; 0xfffff1be
 474:	00018e02 	andeq	r8, r1, r2, lsl #28
 478:	00000014 	andeq	r0, r0, r4, lsl r0
 47c:	000003f0 	strdeq	r0, [r0], -r0	; <UNPREDICTABLE>
 480:	00008788 	andeq	r8, r0, r8, lsl #15
 484:	0000000c 	andeq	r0, r0, ip
 488:	84080e42 	strhi	r0, [r8], #-3650	; 0xfffff1be
 48c:	00018e02 	andeq	r8, r1, r2, lsl #28
 490:	00000014 	andeq	r0, r0, r4, lsl r0
 494:	000003f0 	strdeq	r0, [r0], -r0	; <UNPREDICTABLE>
 498:	00008794 	muleq	r0, r4, r7
 49c:	00000020 	andeq	r0, r0, r0, lsr #32
 4a0:	84080e42 	strhi	r0, [r8], #-3650	; 0xfffff1be
 4a4:	00018e02 	andeq	r8, r1, r2, lsl #28
 4a8:	00000014 	andeq	r0, r0, r4, lsl r0
 4ac:	000003f0 	strdeq	r0, [r0], -r0	; <UNPREDICTABLE>
 4b0:	000087b4 			; <UNDEFINED> instruction: 0x000087b4
 4b4:	00000028 	andeq	r0, r0, r8, lsr #32
 4b8:	84080e42 	strhi	r0, [r8], #-3650	; 0xfffff1be
 4bc:	00018e02 	andeq	r8, r1, r2, lsl #28
 4c0:	00000014 	andeq	r0, r0, r4, lsl r0
 4c4:	000003f0 	strdeq	r0, [r0], -r0	; <UNPREDICTABLE>
 4c8:	000087dc 	ldrdeq	r8, [r0], -ip
 4cc:	00000014 	andeq	r0, r0, r4, lsl r0
 4d0:	84080e42 	strhi	r0, [r8], #-3650	; 0xfffff1be
 4d4:	00018e02 	andeq	r8, r1, r2, lsl #28
 4d8:	00000014 	andeq	r0, r0, r4, lsl r0
 4dc:	000003f0 	strdeq	r0, [r0], -r0	; <UNPREDICTABLE>
 4e0:	000087f0 	strdeq	r8, [r0], -r0
 4e4:	00000034 	andeq	r0, r0, r4, lsr r0
 4e8:	84080e42 	strhi	r0, [r8], #-3650	; 0xfffff1be
 4ec:	00018e02 	andeq	r8, r1, r2, lsl #28
 4f0:	0000000c 	andeq	r0, r0, ip
 4f4:	ffffffff 			; <UNDEFINED> instruction: 0xffffffff
 4f8:	7c020001 	stcvc	0, cr0, [r2], {1}
 4fc:	000d0c0e 	andeq	r0, sp, lr, lsl #24
 500:	0000000c 	andeq	r0, r0, ip
 504:	000004f0 	strdeq	r0, [r0], -r0	; <UNPREDICTABLE>
 508:	00008824 	andeq	r8, r0, r4, lsr #16
 50c:	00000014 	andeq	r0, r0, r4, lsl r0
 510:	0000000c 	andeq	r0, r0, ip
 514:	000004f0 	strdeq	r0, [r0], -r0	; <UNPREDICTABLE>
 518:	00008838 	andeq	r8, r0, r8, lsr r8
 51c:	00000024 	andeq	r0, r0, r4, lsr #32
 520:	0000000c 	andeq	r0, r0, ip
 524:	000004f0 	strdeq	r0, [r0], -r0	; <UNPREDICTABLE>
 528:	0000885c 	andeq	r8, r0, ip, asr r8
 52c:	00000038 	andeq	r0, r0, r8, lsr r0
 530:	00000024 	andeq	r0, r0, r4, lsr #32
 534:	000004f0 	strdeq	r0, [r0], -r0	; <UNPREDICTABLE>
 538:	00008894 	muleq	r0, r4, r8
 53c:	000001b4 			; <UNDEFINED> instruction: 0x000001b4
 540:	84140e42 	ldrhi	r0, [r4], #-3650	; 0xfffff1be
 544:	86048505 	strhi	r8, [r4], -r5, lsl #10
 548:	8e028703 	cdphi	7, 0, cr8, cr2, cr3, {0}
 54c:	600e4201 	andvs	r4, lr, r1, lsl #4
 550:	0e0a9a02 	vmlaeq.f32	s18, s20, s4
 554:	000b4214 	andeq	r4, fp, r4, lsl r2
 558:	00000014 	andeq	r0, r0, r4, lsl r0
 55c:	000004f0 	strdeq	r0, [r0], -r0	; <UNPREDICTABLE>
 560:	00008a48 	andeq	r8, r0, r8, asr #20
 564:	00000064 	andeq	r0, r0, r4, rrx
 568:	8e040e54 	mcrhi	14, 0, r0, cr4, cr4, {2}
 56c:	100e4201 	andne	r4, lr, r1, lsl #4
 570:	0000002c 	andeq	r0, r0, ip, lsr #32
 574:	000004f0 	strdeq	r0, [r0], -r0	; <UNPREDICTABLE>
 578:	00008aac 	andeq	r8, r0, ip, lsr #21
 57c:	00000498 	muleq	r0, r8, r4
 580:	84240e42 	strthi	r0, [r4], #-3650	; 0xfffff1be
 584:	86088509 	strhi	r8, [r8], -r9, lsl #10
 588:	88068707 	stmdahi	r6, {r0, r1, r2, r8, r9, sl, pc}
 58c:	8a048905 	bhi	1229a8 <__bss_end__+0x119340>
 590:	8e028b03 	vmlahi.f64	d8, d2, d3
 594:	b80e4201 	stmdalt	lr, {r0, r9, lr}
 598:	022c0302 	eoreq	r0, ip, #134217728	; 0x8000000
 59c:	0000240e 	andeq	r2, r0, lr, lsl #8
 5a0:	0000000c 	andeq	r0, r0, ip
 5a4:	ffffffff 			; <UNDEFINED> instruction: 0xffffffff
 5a8:	7c020001 	stcvc	0, cr0, [r2], {1}
 5ac:	000d0c0e 	andeq	r0, sp, lr, lsl #24
 5b0:	0000000c 	andeq	r0, r0, ip
 5b4:	000005a0 	andeq	r0, r0, r0, lsr #11
 5b8:	00008f44 	andeq	r8, r0, r4, asr #30
 5bc:	0000002c 	andeq	r0, r0, ip, lsr #32
 5c0:	0000000c 	andeq	r0, r0, ip
 5c4:	ffffffff 			; <UNDEFINED> instruction: 0xffffffff
 5c8:	7c020001 	stcvc	0, cr0, [r2], {1}
 5cc:	000d0c0e 	andeq	r0, sp, lr, lsl #24
 5d0:	0000000c 	andeq	r0, r0, ip
 5d4:	000005c0 	andeq	r0, r0, r0, asr #11
 5d8:	00008f70 	andeq	r8, r0, r0, ror pc
 5dc:	00000020 	andeq	r0, r0, r0, lsr #32
 5e0:	0000000c 	andeq	r0, r0, ip
 5e4:	ffffffff 			; <UNDEFINED> instruction: 0xffffffff
 5e8:	7c020001 	stcvc	0, cr0, [r2], {1}
 5ec:	000d0c0e 	andeq	r0, sp, lr, lsl #24
 5f0:	0000000c 	andeq	r0, r0, ip
 5f4:	000005e0 	andeq	r0, r0, r0, ror #11
 5f8:	00008f90 	muleq	r0, r0, pc	; <UNPREDICTABLE>
 5fc:	00000034 	andeq	r0, r0, r4, lsr r0
 600:	0000000c 	andeq	r0, r0, ip
 604:	ffffffff 			; <UNDEFINED> instruction: 0xffffffff
 608:	7c020001 	stcvc	0, cr0, [r2], {1}
 60c:	000d0c0e 	andeq	r0, sp, lr, lsl #24
 610:	0000000c 	andeq	r0, r0, ip
 614:	00000600 	andeq	r0, r0, r0, lsl #12
 618:	00008fc4 	andeq	r8, r0, r4, asr #31
 61c:	0000002c 	andeq	r0, r0, ip, lsr #32

Disassembly of section .debug_loc:

00000000 <.debug_loc>:
       0:	00000000 	andeq	r0, r0, r0
       4:	00000028 	andeq	r0, r0, r8, lsr #32
       8:	0000003c 	andeq	r0, r0, ip, lsr r0
       c:	3c500001 	mrrccc	0, 0, r0, r0, cr1	; <UNPREDICTABLE>
      10:	60000000 	andvs	r0, r0, r0
      14:	01000000 	mrseq	r0, (UNDEF: 0)
      18:	00005700 	andeq	r5, r0, r0, lsl #14
	...
      24:	00280000 	eoreq	r0, r8, r0
      28:	003c0000 	eorseq	r0, ip, r0
      2c:	00010000 	andeq	r0, r1, r0
      30:	00003c51 	andeq	r3, r0, r1, asr ip
      34:	00006000 	andeq	r6, r0, r0
      38:	56000100 	strpl	r0, [r0], -r0, lsl #2
	...
      48:	00000028 	andeq	r0, r0, r8, lsr #32
      4c:	0000003c 	andeq	r0, r0, ip, lsr r0
      50:	3c520001 	mrrccc	0, 0, r0, r2, cr1
      54:	60000000 	andvs	r0, r0, r0
      58:	01000000 	mrseq	r0, (UNDEF: 0)
      5c:	00005500 	andeq	r5, r0, r0, lsl #10
      60:	00000000 	andeq	r0, r0, r0
      64:	00020000 	andeq	r0, r2, r0
      68:	00380000 	eorseq	r0, r8, r0
      6c:	003c0000 	eorseq	r0, ip, r0
      70:	00020000 	andeq	r0, r2, r0
      74:	003c9f30 	eorseq	r9, ip, r0, lsr pc
      78:	00600000 	rsbeq	r0, r0, r0
      7c:	00010000 	andeq	r0, r1, r0
      80:	00000054 	andeq	r0, r0, r4, asr r0
	...
      8c:	00016800 	andeq	r6, r1, r0, lsl #16
      90:	00017400 	andeq	r7, r1, r0, lsl #8
      94:	50000100 	andpl	r0, r0, r0, lsl #2
      98:	00000174 	andeq	r0, r0, r4, ror r1
      9c:	000001fc 	strdeq	r0, [r0], -ip
      a0:	00560001 	subseq	r0, r6, r1
      a4:	00000000 	andeq	r0, r0, r0
      a8:	01000000 	mrseq	r0, (UNDEF: 0)
      ac:	88000000 	stmdahi	r0, {}	; <UNPREDICTABLE>
      b0:	94000001 	strls	r0, [r0], #-1
      b4:	02000001 	andeq	r0, r0, #1
      b8:	949f3000 	ldrls	r3, [pc], #0	; c0 <__code_start__-0x7f40>
      bc:	fc000001 	stc2	0, cr0, [r0], {1}
      c0:	01000001 	tsteq	r0, r1
      c4:	00005500 	andeq	r5, r0, r0, lsl #10
      c8:	00000000 	andeq	r0, r0, r0
      cc:	00030000 	andeq	r0, r3, r0
      d0:	01880000 	orreq	r0, r8, r0
      d4:	01940000 	orrseq	r0, r4, r0
      d8:	00020000 	andeq	r0, r2, r0
      dc:	01949f30 	orrseq	r9, r4, r0, lsr pc
      e0:	01fc0000 	mvnseq	r0, r0
      e4:	00010000 	andeq	r0, r1, r0
      e8:	00000054 	andeq	r0, r0, r4, asr r0
	...
      f4:	0000f400 	andeq	pc, r0, r0, lsl #8
      f8:	00010800 	andeq	r0, r1, r0, lsl #16
      fc:	50000100 	andpl	r0, r0, r0, lsl #2
     100:	00000108 	andeq	r0, r0, r8, lsl #2
     104:	00000168 	andeq	r0, r0, r8, ror #2
     108:	01f30004 	mvnseq	r0, r4
     10c:	00009f50 	andeq	r9, r0, r0, asr pc
     110:	00000000 	andeq	r0, r0, r0
     114:	00020000 	andeq	r0, r2, r0
     118:	00000000 	andeq	r0, r0, r0
     11c:	00000114 	andeq	r0, r0, r4, lsl r1
     120:	0000011c 	andeq	r0, r0, ip, lsl r1
     124:	9f300002 	svcls	0x00300002
     128:	0000011c 	andeq	r0, r0, ip, lsl r1
     12c:	0000013c 	andeq	r0, r0, ip, lsr r1
     130:	40540001 	subsmi	r0, r4, r1
     134:	68000001 	stmdavs	r0, {r0}
     138:	01000001 	tsteq	r0, r1
     13c:	00005400 	andeq	r5, r0, r0, lsl #8
	...
     148:	00c80000 	sbceq	r0, r8, r0
     14c:	00d40000 	sbcseq	r0, r4, r0
     150:	00010000 	andeq	r0, r1, r0
     154:	0000d450 	andeq	sp, r0, r0, asr r4
     158:	0000f400 	andeq	pc, r0, r0, lsl #8
     15c:	f3000400 	vshl.u8	d0, d0, d0
     160:	009f5001 	addseq	r5, pc, r1
	...
     16c:	40000000 	andmi	r0, r0, r0
     170:	58000002 	stmdapl	r0, {r1}
     174:	01000002 	tsteq	r0, r2
     178:	02585000 	subseq	r5, r8, #0
     17c:	025b0000 	subseq	r0, fp, #0
     180:	00010000 	andeq	r0, r1, r0
     184:	00000051 	andeq	r0, r0, r1, asr r0
     188:	00000000 	andeq	r0, r0, r0
     18c:	40070100 	andmi	r0, r7, r0, lsl #2
     190:	40000002 	andmi	r0, r0, r2
     194:	02000002 	andeq	r0, r0, #2
     198:	009f3300 	addseq	r3, pc, r0, lsl #6
     19c:	00000000 	andeq	r0, r0, r0
     1a0:	01000000 	mrseq	r0, (UNDEF: 0)
     1a4:	00024007 	andeq	r4, r2, r7
     1a8:	00024000 	andeq	r4, r2, r0
     1ac:	50000100 	andpl	r0, r0, r0, lsl #2
	...
     1b8:	02480600 	subeq	r0, r8, #0, 12
     1bc:	02480000 	subeq	r0, r8, #0
     1c0:	00020000 	andeq	r0, r2, r0
     1c4:	00009f32 	andeq	r9, r0, r2, lsr pc
     1c8:	00000000 	andeq	r0, r0, r0
     1cc:	06000000 	streq	r0, [r0], -r0
     1d0:	00000248 	andeq	r0, r0, r8, asr #4
     1d4:	00000248 	andeq	r0, r0, r8, asr #4
     1d8:	00500001 	subseq	r0, r0, r1
	...
     1e4:	10000000 	andne	r0, r0, r0
     1e8:	1b000001 	blne	1f4 <__code_start__-0x7e0c>
     1ec:	01000001 	tsteq	r0, r1
     1f0:	011b5000 	tsteq	fp, r0
     1f4:	01440000 	mrseq	r0, (UNDEF: 68)
     1f8:	00010000 	andeq	r0, r1, r0
     1fc:	00000054 	andeq	r0, r0, r4, asr r0
     200:	00000000 	andeq	r0, r0, r0
     204:	00000100 	andeq	r0, r0, r0, lsl #2
     208:	00011800 	andeq	r1, r1, r0, lsl #16
     20c:	00013400 	andeq	r3, r1, r0, lsl #8
     210:	30000200 	andcc	r0, r0, r0, lsl #4
     214:	0001389f 	muleq	r1, pc, r8	; <UNPREDICTABLE>
     218:	00014400 	andeq	r4, r1, r0, lsl #8
     21c:	30000200 	andcc	r0, r0, r0, lsl #4
     220:	0000009f 	muleq	r0, pc, r0	; <UNPREDICTABLE>
	...
     22c:	00010000 	andeq	r0, r1, r0
     230:	00010b00 	andeq	r0, r1, r0, lsl #22
     234:	50000100 	andpl	r0, r0, r0, lsl #2
     238:	0000010b 	andeq	r0, r0, fp, lsl #2
     23c:	00000110 	andeq	r0, r0, r0, lsl r1
     240:	01f30004 	mvnseq	r0, r4
     244:	00009f50 	andeq	r9, r0, r0, asr pc
	...
     254:	00e40000 	rsceq	r0, r4, r0
     258:	00f30000 	rscseq	r0, r3, r0
     25c:	00010000 	andeq	r0, r1, r0
     260:	0000f350 	andeq	pc, r0, r0, asr r3	; <UNPREDICTABLE>
     264:	0000f800 	andeq	pc, r0, r0, lsl #16
     268:	f3000400 	vshl.u8	d0, d0, d0
     26c:	f89f5001 			; <UNDEFINED> instruction: 0xf89f5001
     270:	fb000000 	blx	27a <__code_start__-0x7d86>
     274:	01000000 	mrseq	r0, (UNDEF: 0)
     278:	00fb5000 	rscseq	r5, fp, r0
     27c:	01000000 	mrseq	r0, (UNDEF: 0)
     280:	00040000 	andeq	r0, r4, r0
     284:	9f5001f3 	svcls	0x005001f3
	...
     298:	000000e4 	andeq	r0, r0, r4, ror #1
     29c:	000000f3 	strdeq	r0, [r0], -r3
     2a0:	f3510001 	vhadd.u16	d16, d1, d1
     2a4:	f8000000 			; <UNDEFINED> instruction: 0xf8000000
     2a8:	04000000 	streq	r0, [r0], #-0
     2ac:	5101f300 	mrspl	pc, SP_irq	; <UNPREDICTABLE>
     2b0:	0000f89f 	muleq	r0, pc, r8	; <UNPREDICTABLE>
     2b4:	0000fb00 	andeq	pc, r0, r0, lsl #22
     2b8:	51000100 	mrspl	r0, (UNDEF: 16)
     2bc:	000000fb 	strdeq	r0, [r0], -fp
     2c0:	00000100 	andeq	r0, r0, r0, lsl #2
     2c4:	01f30004 	mvnseq	r0, r4
     2c8:	00009f51 	andeq	r9, r0, r1, asr pc
	...
     2d4:	00b80000 	adcseq	r0, r8, r0
     2d8:	00c30000 	sbceq	r0, r3, r0
     2dc:	00010000 	andeq	r0, r1, r0
     2e0:	0000c350 	andeq	ip, r0, r0, asr r3
     2e4:	0000e400 	andeq	lr, r0, r0, lsl #8
     2e8:	54000100 	strpl	r0, [r0], #-256	; 0xffffff00
	...
     2f8:	0000008c 	andeq	r0, r0, ip, lsl #1
     2fc:	00000097 	muleq	r0, r7, r0
     300:	97500001 	ldrbls	r0, [r0, -r1]
     304:	b8000000 	stmdalt	r0, {}	; <UNPREDICTABLE>
     308:	01000000 	mrseq	r0, (UNDEF: 0)
     30c:	00005400 	andeq	r5, r0, r0, lsl #8
	...
     318:	007c0000 	rsbseq	r0, ip, r0
     31c:	00870000 	addeq	r0, r7, r0
     320:	00010000 	andeq	r0, r1, r0
     324:	00008750 	andeq	r8, r0, r0, asr r7
     328:	00008c00 	andeq	r8, r0, r0, lsl #24
     32c:	f3000400 	vshl.u8	d0, d0, d0
     330:	009f5001 	addseq	r5, pc, r1
	...
     340:	00001400 	andeq	r1, r0, r0, lsl #8
     344:	00002300 	andeq	r2, r0, r0, lsl #6
     348:	50000100 	andpl	r0, r0, r0, lsl #2
     34c:	00000023 	andeq	r0, r0, r3, lsr #32
     350:	00000054 	andeq	r0, r0, r4, asr r0
     354:	54540001 	ldrbpl	r0, [r4], #-1
     358:	7c000000 	stcvc	0, cr0, [r0], {-0}
     35c:	04000000 	streq	r0, [r0], #-0
     360:	5001f300 	andpl	pc, r1, r0, lsl #6
     364:	0000009f 	muleq	r0, pc, r0	; <UNPREDICTABLE>
	...
     370:	00001400 	andeq	r1, r0, r0, lsl #8
     374:	00002300 	andeq	r2, r0, r0, lsl #6
     378:	51000100 	mrspl	r0, (UNDEF: 16)
     37c:	00000023 	andeq	r0, r0, r3, lsr #32
     380:	0000007c 	andeq	r0, r0, ip, ror r0
     384:	01f30004 	mvnseq	r0, r4
     388:	00009f51 	andeq	r9, r0, r1, asr pc
	...
     394:	0000004c 	andeq	r0, r0, ip, asr #32
     398:	0000007c 	andeq	r0, r0, ip, ror r0
     39c:	00560001 	subseq	r0, r6, r1
	...
     3a8:	00005800 	andeq	r5, r0, r0, lsl #16
     3ac:	00007c00 	andeq	r7, r0, r0, lsl #24
     3b0:	54000100 	strpl	r0, [r0], #-256	; 0xffffff00
	...
     3c0:	00000068 	andeq	r0, r0, r8, rrx
     3c4:	0000006c 	andeq	r0, r0, ip, rrx
     3c8:	00750009 	rsbseq	r0, r5, r9
     3cc:	71240074 			; <UNDEFINED> instruction: 0x71240074
     3d0:	6c9f2100 	ldfvss	f2, [pc], {0}
     3d4:	73000000 	movwvc	r0, #0
     3d8:	01000000 	mrseq	r0, (UNDEF: 0)
     3dc:	00005100 	andeq	r5, r0, r0, lsl #2
	...
     3ec:	000c0000 	andeq	r0, ip, r0
     3f0:	00010000 	andeq	r0, r1, r0
     3f4:	00000c50 	andeq	r0, r0, r0, asr ip
     3f8:	00001400 	andeq	r1, r0, r0, lsl #8
     3fc:	f3000400 	vshl.u8	d0, d0, d0
     400:	009f5001 	addseq	r5, pc, r1
	...
     410:	00002c00 	andeq	r2, r0, r0, lsl #24
     414:	00003800 	andeq	r3, r0, r0, lsl #16
     418:	50000100 	andpl	r0, r0, r0, lsl #2
     41c:	00000038 	andeq	r0, r0, r8, lsr r0
     420:	00000048 	andeq	r0, r0, r8, asr #32
     424:	48540001 	ldmdami	r4, {r0}^
     428:	58000000 	stmdapl	r0, {}	; <UNPREDICTABLE>
     42c:	01000000 	mrseq	r0, (UNDEF: 0)
     430:	00005000 	andeq	r5, r0, r0
     434:	00000000 	andeq	r0, r0, r0
     438:	01000000 	mrseq	r0, (UNDEF: 0)
     43c:	00000001 	andeq	r0, r0, r1
     440:	00080000 	andeq	r0, r8, r0
     444:	00010000 	andeq	r0, r1, r0
     448:	00000850 	andeq	r0, r0, r0, asr r8
     44c:	00003400 	andeq	r3, r0, r0, lsl #8
     450:	54000100 	strpl	r0, [r0], #-256	; 0xffffff00
	...
     464:	0000000b 	andeq	r0, r0, fp
     468:	0b500001 	bleq	1400474 <__bss_end__+0x13f6e0c>
     46c:	14000000 	strne	r0, [r0], #-0
     470:	01000000 	mrseq	r0, (UNDEF: 0)
     474:	00005400 	andeq	r5, r0, r0, lsl #8
     478:	00000000 	andeq	r0, r0, r0
     47c:	01000000 	mrseq	r0, (UNDEF: 0)
     480:	00000001 	andeq	r0, r0, r1
     484:	0000000c 	andeq	r0, r0, ip
     488:	00000014 	andeq	r0, r0, r4, lsl r0
     48c:	14530001 	ldrbne	r0, [r3], #-1
     490:	1c000000 	stcne	0, cr0, [r0], {-0}
     494:	03000000 	movweq	r0, #0
     498:	9f047300 	svcls	0x00047300
     49c:	0000001c 	andeq	r0, r0, ip, lsl r0
     4a0:	00000023 	andeq	r0, r0, r3, lsr #32
     4a4:	00530001 	subseq	r0, r3, r1
     4a8:	00000000 	andeq	r0, r0, r0
     4ac:	01000000 	mrseq	r0, (UNDEF: 0)
     4b0:	00857c00 	addeq	r7, r5, r0, lsl #24
     4b4:	00859800 	addeq	r9, r5, r0, lsl #16
     4b8:	0c000600 	stceq	6, cr0, [r0], {-0}
     4bc:	2010001c 	andscs	r0, r0, ip, lsl r0
     4c0:	0000009f 	muleq	r0, pc, r0	; <UNPREDICTABLE>
     4c4:	00000000 	andeq	r0, r0, r0
     4c8:	7c000200 	sfmvc	f0, 4, [r0], {-0}
     4cc:	98000085 	stmdals	r0, {r0, r2, r7}
     4d0:	06000085 	streq	r0, [r0], -r5, lsl #1
     4d4:	00240c00 	eoreq	r0, r4, r0, lsl #24
     4d8:	009f2010 	addseq	r2, pc, r0, lsl r0	; <UNPREDICTABLE>
     4dc:	00000000 	andeq	r0, r0, r0
     4e0:	03000000 	movweq	r0, #0
     4e4:	00857c00 	addeq	r7, r5, r0, lsl #24
     4e8:	00859800 	addeq	r9, r5, r0, lsl #16
     4ec:	08000500 	stmdaeq	r0, {r8, sl}
     4f0:	9f2447b4 	svcls	0x002447b4
	...
     4fc:	857c0004 	ldrbhi	r0, [ip, #-4]!
     500:	85980000 	ldrhi	r0, [r8]
     504:	00030000 	andeq	r0, r3, r0
     508:	009f2008 	addseq	r2, pc, r8
     50c:	00000000 	andeq	r0, r0, r0
     510:	02000000 	andeq	r0, r0, #0
     514:	00000000 	andeq	r0, r0, r0
     518:	00854800 	addeq	r4, r5, r0, lsl #16
     51c:	00854c00 	addeq	r4, r5, r0, lsl #24
     520:	30000200 	andcc	r0, r0, r0, lsl #4
     524:	00854c9f 	umulleq	r4, r5, pc, ip	; <UNPREDICTABLE>
     528:	00855000 	addeq	r5, r5, r0
     52c:	53000100 	movwpl	r0, #256	; 0x100
     530:	00008554 	andeq	r8, r0, r4, asr r5
     534:	0000855c 	andeq	r8, r0, ip, asr r5
     538:	00530001 	subseq	r0, r3, r1
     53c:	00000000 	andeq	r0, r0, r0
     540:	02000000 	andeq	r0, r0, #0
     544:	30000000 	andcc	r0, r0, r0
     548:	34000085 	strcc	r0, [r0], #-133	; 0xffffff7b
     54c:	02000085 	andeq	r0, r0, #133	; 0x85
     550:	349f3000 	ldrcc	r3, [pc], #0	; 558 <__code_start__-0x7aa8>
     554:	38000085 	stmdacc	r0, {r0, r2, r7}
     558:	01000085 	smlabbeq	r0, r5, r0, r0
     55c:	00005000 	andeq	r5, r0, r0
	...
     568:	006c0000 	rsbeq	r0, ip, r0
     56c:	00780000 	rsbseq	r0, r8, r0
     570:	00010000 	andeq	r0, r1, r0
     574:	00007850 	andeq	r7, r0, r0, asr r8
     578:	00008400 	andeq	r8, r0, r0, lsl #8
     57c:	f3000400 	vshl.u8	d0, d0, d0
     580:	009f5001 	addseq	r5, pc, r1
	...
     58c:	54000000 	strpl	r0, [r0], #-0
     590:	60000000 	andvs	r0, r0, r0
     594:	01000000 	mrseq	r0, (UNDEF: 0)
     598:	00605000 	rsbeq	r5, r0, r0
     59c:	006c0000 	rsbeq	r0, ip, r0
     5a0:	00040000 	andeq	r0, r4, r0
     5a4:	9f5001f3 	svcls	0x005001f3
	...
     5b4:	00000030 	andeq	r0, r0, r0, lsr r0
     5b8:	0000003b 	andeq	r0, r0, fp, lsr r0
     5bc:	3b500001 	blcc	14005c8 <__bss_end__+0x13f6f60>
     5c0:	54000000 	strpl	r0, [r0], #-0
     5c4:	01000000 	mrseq	r0, (UNDEF: 0)
     5c8:	00005500 	andeq	r5, r0, r0, lsl #10
	...
     5d4:	00000040 	andeq	r0, r0, r0, asr #32
     5d8:	00000054 	andeq	r0, r0, r4, asr r0
     5dc:	00540001 	subseq	r0, r4, r1
	...
     5e8:	00004400 	andeq	r4, r0, r0, lsl #8
     5ec:	00004800 	andeq	r4, r0, r0, lsl #16
     5f0:	50000100 	andpl	r0, r0, r0, lsl #2
	...
     600:	00000024 	andeq	r0, r0, r4, lsr #32
     604:	00000027 	andeq	r0, r0, r7, lsr #32
     608:	27500001 	ldrbcs	r0, [r0, -r1]
     60c:	30000000 	andcc	r0, r0, r0
     610:	01000000 	mrseq	r0, (UNDEF: 0)
     614:	00005400 	andeq	r5, r0, r0, lsl #8
	...
     620:	00000190 	muleq	r0, r0, r1
     624:	000001a0 	andeq	r0, r0, r0, lsr #3
     628:	00540001 	subseq	r0, r4, r1
	...
     634:	1c000000 	stcne	0, cr0, [r0], {-0}
     638:	27000001 	strcs	r0, [r0, -r1]
     63c:	01000001 	tsteq	r0, r1
     640:	01275000 			; <UNDEFINED> instruction: 0x01275000
     644:	014c0000 	mrseq	r0, (UNDEF: 76)
     648:	00010000 	andeq	r0, r1, r0
     64c:	00000054 	andeq	r0, r0, r4, asr r0
	...
     658:	00011000 	andeq	r1, r1, r0
     65c:	00011400 	andeq	r1, r1, r0, lsl #8
     660:	70000500 	andvc	r0, r0, r0, lsl #10
     664:	9f1a3200 	svcls	0x001a3200
     668:	00000114 	andeq	r0, r0, r4, lsl r1
     66c:	0000011c 	andeq	r0, r0, ip, lsl r1
     670:	00500001 	subseq	r0, r0, r1
	...
     67c:	0000f000 	andeq	pc, r0, r0
     680:	00010000 	andeq	r0, r1, r0
     684:	54000100 	strpl	r0, [r0], #-256	; 0xffffff00
	...
     690:	00140000 	andseq	r0, r4, r0
     694:	00240000 	eoreq	r0, r4, r0
     698:	00010000 	andeq	r0, r1, r0
     69c:	00000054 	andeq	r0, r0, r4, asr r0
	...
     6a8:	88000000 	stmdahi	r0, {}	; <UNPREDICTABLE>
     6ac:	b8000002 	stmdalt	r0, {r1}
     6b0:	01000002 	tsteq	r0, r2
     6b4:	02b85000 	adcseq	r5, r8, #0
     6b8:	06ec0000 	strbteq	r0, [ip], r0
     6bc:	00010000 	andeq	r0, r1, r0
     6c0:	0006ec59 	andeq	lr, r6, r9, asr ip
     6c4:	00072000 	andeq	r2, r7, r0
     6c8:	f3000400 	vshl.u8	d0, d0, d0
     6cc:	009f5001 	addseq	r5, pc, r1
	...
     6dc:	00028800 	andeq	r8, r2, r0, lsl #16
     6e0:	0002a000 	andeq	sl, r2, r0
     6e4:	51000100 	mrspl	r0, (UNDEF: 16)
     6e8:	000002a0 	andeq	r0, r0, r0, lsr #5
     6ec:	000002b8 			; <UNDEFINED> instruction: 0x000002b8
     6f0:	01710003 	cmneq	r1, r3
     6f4:	0002b89f 	muleq	r2, pc, r8	; <UNPREDICTABLE>
     6f8:	00072000 	andeq	r2, r7, r0
     6fc:	f3000400 	vshl.u8	d0, d0, d0
     700:	009f5101 	addseq	r5, pc, r1, lsl #2
	...
     714:	88000000 	stmdahi	r0, {}	; <UNPREDICTABLE>
     718:	b8000002 	stmdalt	r0, {r1}
     71c:	01000002 	tsteq	r0, r2
     720:	02b85200 	adcseq	r5, r8, #0, 4
     724:	03ec0000 	mvneq	r0, #0
     728:	00010000 	andeq	r0, r1, r0
     72c:	0003ec56 	andeq	lr, r3, r6, asr ip
     730:	0004a000 	andeq	sl, r4, r0
     734:	5b000100 	blpl	b3c <__code_start__-0x74c4>
     738:	000004a0 	andeq	r0, r0, r0, lsr #9
     73c:	000004c0 	andeq	r0, r0, r0, asr #9
     740:	c0560001 	subsgt	r0, r6, r1
     744:	44000004 	strmi	r0, [r0], #-4
     748:	01000005 	tsteq	r0, r5
     74c:	05445b00 	strbeq	r5, [r4, #-2816]	; 0xfffff500
     750:	06ec0000 	strbteq	r0, [ip], r0
     754:	00010000 	andeq	r0, r1, r0
     758:	00000056 	andeq	r0, r0, r6, asr r0
     75c:	00000000 	andeq	r0, r0, r0
     760:	00000100 	andeq	r0, r0, r0, lsl #2
     764:	00000000 	andeq	r0, r0, r0
     768:	00000101 	andeq	r0, r0, r1, lsl #2
     76c:	00000000 	andeq	r0, r0, r0
     770:	00000202 	andeq	r0, r0, r2, lsl #4
     774:	00029c00 	andeq	r9, r2, r0, lsl #24
     778:	0002b800 	andeq	fp, r2, r0, lsl #16
     77c:	50000100 	andpl	r0, r0, r0, lsl #2
     780:	000002b8 			; <UNDEFINED> instruction: 0x000002b8
     784:	000002bc 			; <UNDEFINED> instruction: 0x000002bc
     788:	bc540001 	mrrclt	0, 0, r0, r4, cr1
     78c:	c0000002 	andgt	r0, r0, r2
     790:	03000002 	movweq	r0, #2
     794:	9f017400 	svcls	0x00017400
     798:	000002c0 	andeq	r0, r0, r0, asr #5
     79c:	000002e4 	andeq	r0, r0, r4, ror #5
     7a0:	e4540001 	ldrb	r0, [r4], #-1
     7a4:	e8000002 	stmda	r0, {r1}
     7a8:	03000002 	movweq	r0, #2
     7ac:	9f017400 	svcls	0x00017400
     7b0:	000002e8 	andeq	r0, r0, r8, ror #5
     7b4:	000006bc 			; <UNDEFINED> instruction: 0x000006bc
     7b8:	bc540001 	mrrclt	0, 0, r0, r4, cr1
     7bc:	c0000006 	andgt	r0, r0, r6
     7c0:	03000006 	movweq	r0, #6
     7c4:	9f017400 	svcls	0x00017400
     7c8:	000006c0 	andeq	r0, r0, r0, asr #13
     7cc:	000006d8 	ldrdeq	r0, [r0], -r8
     7d0:	d8540001 	ldmdale	r4, {r0}^
     7d4:	e0000006 	and	r0, r0, r6
     7d8:	03000006 	movweq	r0, #6
     7dc:	9f017400 	svcls	0x00017400
     7e0:	000006e0 	andeq	r0, r0, r0, ror #13
     7e4:	000006ec 	andeq	r0, r0, ip, ror #13
     7e8:	00540001 	subseq	r0, r4, r1
	...
     7f4:	a4000000 	strge	r0, [r0], #-0
     7f8:	ec000002 	stc	0, cr0, [r0], {2}
     7fc:	01000006 	tsteq	r0, r6
     800:	06ec5800 	strbteq	r5, [ip], r0, lsl #16
     804:	07200000 	streq	r0, [r0, -r0]!
     808:	000a0000 	andeq	r0, sl, r0
     80c:	f35101f3 	vbsl	q8, <illegal reg q8.5>, <illegal reg q9.5>
     810:	31225001 			; <UNDEFINED> instruction: 0x31225001
     814:	00009f1c 	andeq	r9, r0, ip, lsl pc
     818:	00000000 	andeq	r0, r0, r0
     81c:	00010000 	andeq	r0, r1, r0
     820:	00000000 	andeq	r0, r0, r0
     824:	00000408 	andeq	r0, r0, r8, lsl #8
     828:	0000045c 	andeq	r0, r0, ip, asr r4
     82c:	c0570001 	subsgt	r0, r7, r1
     830:	e4000004 	str	r0, [r0], #-4
     834:	01000004 	tsteq	r0, r4
     838:	05285700 	streq	r5, [r8, #-1792]!	; 0xfffff900
     83c:	05440000 	strbeq	r0, [r4, #-0]
     840:	00010000 	andeq	r0, r1, r0
     844:	00000057 	andeq	r0, r0, r7, asr r0
     848:	00000000 	andeq	r0, r0, r0
     84c:	00000100 	andeq	r0, r0, r0, lsl #2
     850:	0002ac00 	andeq	sl, r2, r0, lsl #24
     854:	0002b800 	andeq	fp, r2, r0, lsl #16
     858:	52000100 	andpl	r0, r0, #0, 2
     85c:	000002b8 			; <UNDEFINED> instruction: 0x000002b8
     860:	00000720 	andeq	r0, r0, r0, lsr #14
     864:	c8910003 	ldmgt	r1, {r0, r1}
     868:	0000007d 	andeq	r0, r0, sp, ror r0
	...
     878:	01010000 	mrseq	r0, (UNDEF: 1)
	...
     884:	5c000000 	stcpl	0, cr0, [r0], {-0}
     888:	74000004 	strvc	r0, [r0], #-4
     88c:	01000004 	tsteq	r0, r4
     890:	04745000 	ldrbteq	r5, [r4], #-0
     894:	04a00000 	strteq	r0, [r0], #0
     898:	00010000 	andeq	r0, r1, r0
     89c:	0004e457 	andeq	lr, r4, r7, asr r4
     8a0:	0004fc00 	andeq	pc, r4, r0, lsl #24
     8a4:	50000100 	andpl	r0, r0, r0, lsl #2
     8a8:	000004fc 	strdeq	r0, [r0], -ip
     8ac:	00000528 	andeq	r0, r0, r8, lsr #10
     8b0:	8c570001 	mrrchi	0, 0, r0, r7, cr1
     8b4:	8c000005 	stchi	0, cr0, [r0], {5}
     8b8:	01000005 	tsteq	r0, r5
     8bc:	058c5000 	streq	r5, [ip]
     8c0:	05940000 	ldreq	r0, [r4]
     8c4:	00010000 	andeq	r0, r1, r0
     8c8:	0005c457 	andeq	ip, r5, r7, asr r4
     8cc:	0005c800 	andeq	ip, r5, r0, lsl #16
     8d0:	50000100 	andpl	r0, r0, r0, lsl #2
     8d4:	000005f8 	strdeq	r0, [r0], -r8
     8d8:	000005fc 	strdeq	r0, [r0], -ip
     8dc:	2c500001 	mrrccs	0, 0, r0, r0, cr1	; <UNPREDICTABLE>
     8e0:	30000006 	andcc	r0, r0, r6
     8e4:	01000006 	tsteq	r0, r6
     8e8:	06745000 	ldrbteq	r5, [r4], -r0
     8ec:	06780000 	ldrbteq	r0, [r8], -r0
     8f0:	00010000 	andeq	r0, r1, r0
     8f4:	0006b850 	andeq	fp, r6, r0, asr r8
     8f8:	0006d800 	andeq	sp, r6, r0, lsl #16
     8fc:	57000100 	strpl	r0, [r0, -r0, lsl #2]
	...
     908:	00000002 	andeq	r0, r0, r2
     90c:	02f40000 	rscseq	r0, r4, #0
     910:	02f80000 	rscseq	r0, r8, #0
     914:	00020000 	andeq	r0, r2, r0
     918:	02f89f30 	rscseq	r9, r8, #48, 30	; 0xc0
     91c:	03140000 	tsteq	r4, #0
     920:	00010000 	andeq	r0, r1, r0
     924:	00031c55 	andeq	r1, r3, r5, asr ip
     928:	0006d800 	andeq	sp, r6, r0, lsl #16
     92c:	55000100 	strpl	r0, [r0, #-256]	; 0xffffff00
	...
     938:	00000001 	andeq	r0, r0, r1
     93c:	00000000 	andeq	r0, r0, r0
     940:	03b80000 			; <UNDEFINED> instruction: 0x03b80000
     944:	043c0000 	ldrteq	r0, [ip], #-0
     948:	00010000 	andeq	r0, r1, r0
     94c:	00043c56 	andeq	r3, r4, r6, asr ip
     950:	0004a000 	andeq	sl, r4, r0
     954:	7b000300 	blvc	155c <__code_start__-0x6aa4>
     958:	04a09f7e 	strteq	r9, [r0], #3966	; 0xf7e
     95c:	04c40000 	strbeq	r0, [r4], #0
     960:	00010000 	andeq	r0, r1, r0
     964:	0004c456 	andeq	ip, r4, r6, asr r4
     968:	00052800 	andeq	r2, r5, r0, lsl #16
     96c:	7b000300 	blvc	1574 <__code_start__-0x6a8c>
     970:	05289f7e 	streq	r9, [r8, #-3966]!	; 0xfffff082
     974:	05440000 	strbeq	r0, [r4, #-0]
     978:	00010000 	andeq	r0, r1, r0
     97c:	00000056 	andeq	r0, r0, r6, asr r0
	...
     988:	70000000 	andvc	r0, r0, r0
     98c:	94000000 	strls	r0, [r0], #-0
     990:	01000000 	mrseq	r0, (UNDEF: 0)
     994:	00945000 	addseq	r5, r4, r0
     998:	00fc0000 	rscseq	r0, ip, r0
     99c:	00030000 	andeq	r0, r3, r0
     9a0:	fc9f0270 	ldc2	2, cr0, [pc], {112}	; 0x70
     9a4:	24000000 	strcs	r0, [r0], #-0
     9a8:	04000002 	streq	r0, [r0], #-2
     9ac:	5001f300 	andpl	pc, r1, r0, lsl #6
     9b0:	0000009f 	muleq	r0, pc, r0	; <UNPREDICTABLE>
	...
     9c8:	00007000 	andeq	r7, r0, r0
     9cc:	0000e000 	andeq	lr, r0, r0
     9d0:	51000100 	mrspl	r0, (UNDEF: 16)
     9d4:	000000e0 	andeq	r0, r0, r0, ror #1
     9d8:	00000154 	andeq	r0, r0, r4, asr r1
     9dc:	54550001 	ldrbpl	r0, [r5], #-1
     9e0:	58000001 	stmdapl	r0, {r0}
     9e4:	01000001 	tsteq	r0, r1
     9e8:	01585100 	cmpeq	r8, r0, lsl #2
     9ec:	01b00000 	movseq	r0, r0
     9f0:	00010000 	andeq	r0, r1, r0
     9f4:	0001b055 	andeq	fp, r1, r5, asr r0
     9f8:	0001c000 	andeq	ip, r1, r0
     9fc:	51000100 	mrspl	r0, (UNDEF: 16)
     a00:	000001c0 	andeq	r0, r0, r0, asr #3
     a04:	000001e4 	andeq	r0, r0, r4, ror #3
     a08:	e4550001 	ldrb	r0, [r5], #-1
     a0c:	f8000001 			; <UNDEFINED> instruction: 0xf8000001
     a10:	01000001 	tsteq	r0, r1
     a14:	01f85100 	mvnseq	r5, r0, lsl #2
     a18:	02240000 	eoreq	r0, r4, #0
     a1c:	00010000 	andeq	r0, r1, r0
     a20:	00000055 	andeq	r0, r0, r5, asr r0
	...
     a2c:	00007000 	andeq	r7, r0, r0
     a30:	00008400 	andeq	r8, r0, r0, lsl #8
     a34:	52000100 	andpl	r0, r0, #0, 2
     a38:	00000084 	andeq	r0, r0, r4, lsl #1
     a3c:	00000224 	andeq	r0, r0, r4, lsr #4
     a40:	00540001 	subseq	r0, r4, r1
	...
     a50:	00000001 	andeq	r0, r0, r1
     a54:	70000000 	andvc	r0, r0, r0
     a58:	f4000000 	vst4.8	{d0-d3}, [r0], r0
     a5c:	01000000 	mrseq	r0, (UNDEF: 0)
     a60:	014c5300 	mrseq	r5, SPSR_mon
     a64:	01800000 	orreq	r0, r0, r0
     a68:	00010000 	andeq	r0, r1, r0
     a6c:	00018053 	andeq	r8, r1, r3, asr r0
     a70:	00018c00 	andeq	r8, r1, r0, lsl #24
     a74:	f3000400 	vshl.u8	d0, d0, d0
     a78:	b09f5301 	addslt	r5, pc, r1, lsl #6
     a7c:	e8000001 	stmda	r0, {r0}
     a80:	01000001 	tsteq	r0, r1
     a84:	01e85300 	mvneq	r5, r0, lsl #6
     a88:	01ff0000 	mvnseq	r0, r0
     a8c:	00010000 	andeq	r0, r1, r0
     a90:	0001ff5c 	andeq	pc, r1, ip, asr pc	; <UNPREDICTABLE>
     a94:	00022400 	andeq	r2, r2, r0, lsl #8
     a98:	f3000400 	vshl.u8	d0, d0, d0
     a9c:	009f5301 	addseq	r5, pc, r1, lsl #6
	...
     aac:	00007000 	andeq	r7, r0, r0
     ab0:	00008c00 	andeq	r8, r0, r0, lsl #24
     ab4:	91000200 	mrsls	r0, R8_usr
     ab8:	00008c00 	andeq	r8, r0, r0, lsl #24
     abc:	00019300 	andeq	r9, r1, r0, lsl #6
     ac0:	52000100 	andpl	r0, r0, #0, 2
     ac4:	000001b0 			; <UNDEFINED> instruction: 0x000001b0
     ac8:	000001f4 	strdeq	r0, [r0], -r4
     acc:	00520001 	subseq	r0, r2, r1
     ad0:	00000000 	andeq	r0, r0, r0
     ad4:	01000000 	mrseq	r0, (UNDEF: 0)
     ad8:	01010000 	mrseq	r0, (UNDEF: 1)
	...
     ae4:	01010101 	tsteq	r1, r1, lsl #2
     ae8:	01010000 	mrseq	r0, (UNDEF: 1)
	...
     af4:	8c000000 	stchi	0, cr0, [r0], {-0}
     af8:	fc000000 	stc2	0, cr0, [r0], {-0}
     afc:	04000000 	streq	r0, [r0], #-0
     b00:	7fa09100 	svcvc	0x00a09100
     b04:	0000fc9f 	muleq	r0, pc, ip	; <UNPREDICTABLE>
     b08:	00013c00 	andeq	r3, r1, r0, lsl #24
     b0c:	50000100 	andpl	r0, r0, r0, lsl #2
     b10:	0000013c 	andeq	r0, r0, ip, lsr r1
     b14:	00000148 	andeq	r0, r0, r8, asr #2
     b18:	02710003 	rsbseq	r0, r1, #3
     b1c:	0001489f 	muleq	r1, pc, r8	; <UNPREDICTABLE>
     b20:	00014c00 	andeq	r4, r1, r0, lsl #24
     b24:	50000100 	andpl	r0, r0, r0, lsl #2
     b28:	0000014c 	andeq	r0, r0, ip, asr #2
     b2c:	00000158 	andeq	r0, r0, r8, asr r1
     b30:	a0910004 	addsge	r0, r1, r4
     b34:	01589f7f 	cmpeq	r8, pc, ror pc
     b38:	016c0000 	cmneq	ip, r0
     b3c:	00010000 	andeq	r0, r1, r0
     b40:	00016c51 	andeq	r6, r1, r1, asr ip
     b44:	00017800 	andeq	r7, r1, r0, lsl #16
     b48:	71000300 	mrsvc	r0, LR_irq
     b4c:	01789f7f 	cmneq	r8, pc, ror pc
     b50:	01840000 	orreq	r0, r4, r0
     b54:	00030000 	andeq	r0, r3, r0
     b58:	849f0171 	ldrhi	r0, [pc], #369	; b60 <__code_start__-0x74a0>
     b5c:	93000001 	movwls	r0, #1
     b60:	01000001 	tsteq	r0, r1
     b64:	01b05000 	movseq	r5, r0
     b68:	01b00000 	movseq	r0, r0
     b6c:	00040000 	andeq	r0, r4, r0
     b70:	9f7fa091 	svcls	0x007fa091
     b74:	000001b0 			; <UNDEFINED> instruction: 0x000001b0
     b78:	000001b8 			; <UNDEFINED> instruction: 0x000001b8
     b7c:	a1910004 	orrsge	r0, r1, r4
     b80:	01b89f7f 			; <UNDEFINED> instruction: 0x01b89f7f
     b84:	01bc0000 			; <UNDEFINED> instruction: 0x01bc0000
     b88:	00010000 	andeq	r0, r1, r0
     b8c:	0001bc50 	andeq	fp, r1, r0, asr ip
     b90:	0001c000 	andeq	ip, r1, r0
     b94:	91000400 	tstls	r0, r0, lsl #8
     b98:	c09f7fa0 	addsgt	r7, pc, r0, lsr #31
     b9c:	d4000001 	strle	r0, [r0], #-1
     ba0:	01000001 	tsteq	r0, r1
     ba4:	01d45000 	bicseq	r5, r4, r0
     ba8:	01e40000 	mvneq	r0, r0
     bac:	00030000 	andeq	r0, r3, r0
     bb0:	e49f7f70 	ldr	r7, [pc], #3952	; bb8 <__code_start__-0x7448>
     bb4:	24000001 	strcs	r0, [r0], #-1
     bb8:	04000002 	streq	r0, [r0], #-2
     bbc:	7fa09100 	svcvc	0x00a09100
     bc0:	0000009f 	muleq	r0, pc, r0	; <UNPREDICTABLE>
	...
     bcc:	00000101 	andeq	r0, r0, r1, lsl #2
	...
     bdc:	00009000 	andeq	r9, r0, r0
     be0:	0000dc00 	andeq	sp, r0, r0, lsl #24
     be4:	5c000100 	stfpls	f0, [r0], {-0}
     be8:	000000dc 	ldrdeq	r0, [r0], -ip
     bec:	000000f4 	strdeq	r0, [r0], -r4
     bf0:	f4530001 			; <UNDEFINED> instruction: 0xf4530001
     bf4:	4c000000 	stcmi	0, cr0, [r0], {-0}
     bf8:	01000001 	tsteq	r0, r1
     bfc:	014c5c00 	cmpeq	ip, r0, lsl #24
     c00:	01580000 	cmpeq	r8, r0
     c04:	00010000 	andeq	r0, r1, r0
     c08:	00015853 	andeq	r5, r1, r3, asr r8
     c0c:	00017400 	andeq	r7, r1, r0, lsl #8
     c10:	5c000100 	stfpls	f0, [r0], {-0}
     c14:	000001b0 			; <UNDEFINED> instruction: 0x000001b0
     c18:	000001c0 	andeq	r0, r0, r0, asr #3
     c1c:	c0530001 	subsgt	r0, r3, r1
     c20:	dc000001 	stcle	0, cr0, [r0], {1}
     c24:	01000001 	tsteq	r0, r1
     c28:	01e45c00 	mvneq	r5, r0, lsl #24
     c2c:	01e80000 	mvneq	r0, r0
     c30:	00010000 	andeq	r0, r1, r0
     c34:	0001e853 	andeq	lr, r1, r3, asr r8
     c38:	0001ff00 	andeq	pc, r1, r0, lsl #30
     c3c:	5c000100 	stfpls	f0, [r0], {-0}
     c40:	000001ff 	strdeq	r0, [r0], -pc	; <UNPREDICTABLE>
     c44:	00000224 	andeq	r0, r0, r4, lsr #4
     c48:	01f30004 	mvnseq	r0, r4
     c4c:	00009f53 	andeq	r9, r0, r3, asr pc
     c50:	00000000 	andeq	r0, r0, r0
     c54:	01010000 	mrseq	r0, (UNDEF: 1)
     c58:	00000001 	andeq	r0, r0, r1
     c5c:	00dc0000 	sbcseq	r0, ip, r0
     c60:	00f00000 	rscseq	r0, r0, r0
     c64:	00020000 	andeq	r0, r2, r0
     c68:	00f09f30 	rscseq	r9, r0, r0, lsr pc
     c6c:	00f80000 	rscseq	r0, r8, r0
     c70:	00020000 	andeq	r0, r2, r0
     c74:	00fc9f31 	rscseq	r9, ip, r1, lsr pc
     c78:	014c0000 	mrseq	r0, (UNDEF: 76)
     c7c:	00010000 	andeq	r0, r1, r0
     c80:	00014c56 	andeq	r4, r1, r6, asr ip
     c84:	00015400 	andeq	r5, r1, r0, lsl #8
     c88:	30000200 	andcc	r0, r0, r0, lsl #4
     c8c:	0000009f 	muleq	r0, pc, r0	; <UNPREDICTABLE>
	...
     c98:	00000101 	andeq	r0, r0, r1, lsl #2
     c9c:	38000101 	stmdacc	r0, {r0, r8}
     ca0:	54000000 	strpl	r0, [r0], #-0
     ca4:	01000000 	mrseq	r0, (UNDEF: 0)
     ca8:	00545000 	subseq	r5, r4, r0
     cac:	00580000 	subseq	r0, r8, r0
     cb0:	00010000 	andeq	r0, r1, r0
     cb4:	00005852 	andeq	r5, r0, r2, asr r8
     cb8:	00006000 	andeq	r6, r0, r0
     cbc:	72000300 	andvc	r0, r0, #0, 6
     cc0:	00609f01 	rsbeq	r9, r0, r1, lsl #30
     cc4:	00640000 	rsbeq	r0, r4, r0
     cc8:	00010000 	andeq	r0, r1, r0
     ccc:	00006452 	andeq	r6, r0, r2, asr r4
     cd0:	00007000 	andeq	r7, r0, r0
     cd4:	72000300 	andvc	r0, r0, #0, 6
     cd8:	00009f01 	andeq	r9, r0, r1, lsl #30
	...
     ce4:	00380000 	eorseq	r0, r8, r0
     ce8:	00500000 	subseq	r0, r0, r0
     cec:	00010000 	andeq	r0, r1, r0
     cf0:	00005051 	andeq	r5, r0, r1, asr r0
     cf4:	00007000 	andeq	r7, r0, r0
     cf8:	f3000400 	vshl.u8	d0, d0, d0
     cfc:	009f5101 	addseq	r5, pc, r1, lsl #2
	...
     d0c:	38000101 	stmdacc	r0, {r0, r8}
     d10:	50000000 	andpl	r0, r0, r0
     d14:	01000000 	mrseq	r0, (UNDEF: 0)
     d18:	00505200 	subseq	r5, r0, r0, lsl #4
     d1c:	005c0000 	subseq	r0, ip, r0
     d20:	00010000 	andeq	r0, r1, r0
     d24:	00005c51 	andeq	r5, r0, r1, asr ip
     d28:	00006000 	andeq	r6, r0, r0
     d2c:	71000300 	mrsvc	r0, LR_irq
     d30:	00609f01 	rsbeq	r9, r0, r1, lsl #30
     d34:	00700000 	rsbseq	r0, r0, r0
     d38:	00010000 	andeq	r0, r1, r0
     d3c:	00000051 	andeq	r0, r0, r1, asr r0
	...
     d48:	00003800 	andeq	r3, r0, r0, lsl #16
     d4c:	00004c00 	andeq	r4, r0, r0, lsl #24
     d50:	53000100 	movwpl	r0, #256	; 0x100
     d54:	0000004c 	andeq	r0, r0, ip, asr #32
     d58:	00000068 	andeq	r0, r0, r8, rrx
     d5c:	00530001 	subseq	r0, r3, r1
	...
     d6c:	40000000 	andmi	r0, r0, r0
     d70:	48000000 	stmdami	r0, {}	; <UNPREDICTABLE>
     d74:	01000000 	mrseq	r0, (UNDEF: 0)
     d78:	00485c00 	subeq	r5, r8, r0, lsl #24
     d7c:	004c0000 	subeq	r0, ip, r0
     d80:	00080000 	andeq	r0, r8, r0
     d84:	00730072 	rsbseq	r0, r3, r2, ror r0
     d88:	9f01231c 	svcls	0x0001231c
     d8c:	0000004c 	andeq	r0, r0, ip, asr #32
     d90:	00000054 	andeq	r0, r0, r4, asr r0
     d94:	00720009 	rsbseq	r0, r2, r9
     d98:	1c5301f3 	ldfnee	f0, [r3], {243}	; 0xf3
     d9c:	549f0123 	ldrpl	r0, [pc], #291	; da4 <__code_start__-0x725c>
     da0:	70000000 	andvc	r0, r0, r0
     da4:	0a000000 	beq	dac <__code_start__-0x7254>
     da8:	5201f300 	andpl	pc, r1, #0, 6
     dac:	1c5301f3 	ldfnee	f0, [r3], {243}	; 0xf3
     db0:	009f0123 	addseq	r0, pc, r3, lsr #2
     db4:	00000000 	andeq	r0, r0, r0
     db8:	01000000 	mrseq	r0, (UNDEF: 0)
     dbc:	00004c00 	andeq	r4, r0, r0, lsl #24
     dc0:	00007000 	andeq	r7, r0, r0
     dc4:	50000100 	andpl	r0, r0, r0, lsl #2
	...
     dd0:	00010100 	andeq	r0, r1, r0, lsl #2
     dd4:	00140000 	andseq	r0, r4, r0
     dd8:	001c0000 	andseq	r0, ip, r0
     ddc:	00010000 	andeq	r0, r1, r0
     de0:	00001c50 	andeq	r1, r0, r0, asr ip
     de4:	00002400 	andeq	r2, r0, r0, lsl #8
     de8:	70000300 	andvc	r0, r0, r0, lsl #6
     dec:	00249f01 	eoreq	r9, r4, r1, lsl #30
     df0:	00380000 	eorseq	r0, r8, r0
     df4:	00010000 	andeq	r0, r1, r0
     df8:	00000050 	andeq	r0, r0, r0, asr r0
	...
     e04:	00001400 	andeq	r1, r0, r0, lsl #8
     e08:	00001800 	andeq	r1, r0, r0, lsl #16
     e0c:	51000100 	mrspl	r0, (UNDEF: 16)
     e10:	00000018 	andeq	r0, r0, r8, lsl r0
     e14:	00000038 	andeq	r0, r0, r8, lsr r0
     e18:	01f30004 	mvnseq	r0, r4
     e1c:	00009f51 	andeq	r9, r0, r1, asr pc
	...
     e28:	00000018 	andeq	r0, r0, r8, lsl r0
     e2c:	00000038 	andeq	r0, r0, r8, lsr r0
     e30:	00510001 	subseq	r0, r1, r1
	...
     e44:	00000400 	andeq	r0, r0, r0, lsl #8
     e48:	50000100 	andpl	r0, r0, r0, lsl #2
     e4c:	00000004 	andeq	r0, r0, r4
     e50:	0000000c 	andeq	r0, r0, ip
     e54:	30700003 	rsbscc	r0, r0, r3
     e58:	00000c9f 	muleq	r0, pc, ip	; <UNPREDICTABLE>
     e5c:	00001400 	andeq	r1, r0, r0, lsl #8
     e60:	f3000400 	vshl.u8	d0, d0, d0
     e64:	009f5001 	addseq	r5, pc, r1
	...
     e70:	24000000 	strcs	r0, [r0], #-0
     e74:	68000002 	stmdavs	r0, {r1}
     e78:	01000002 	tsteq	r0, r2
     e7c:	02685000 	rsbeq	r5, r8, #0
     e80:	02880000 	addeq	r0, r8, #0
     e84:	00040000 	andeq	r0, r4, r0
     e88:	9f5001f3 	svcls	0x005001f3
	...
     e98:	00000224 	andeq	r0, r0, r4, lsr #4
     e9c:	00000264 	andeq	r0, r0, r4, ror #4
     ea0:	64510001 	ldrbvs	r0, [r1], #-1
     ea4:	88000002 	stmdahi	r0, {r1}
     ea8:	04000002 	streq	r0, [r0], #-2
     eac:	5101f300 	mrspl	pc, SP_irq	; <UNPREDICTABLE>
     eb0:	0000009f 	muleq	r0, pc, r0	; <UNPREDICTABLE>
	...
     ec0:	00001800 	andeq	r1, r0, r0, lsl #16
     ec4:	50000100 	andpl	r0, r0, r0, lsl #2
     ec8:	00000018 	andeq	r0, r0, r8, lsl r0
     ecc:	00000024 	andeq	r0, r0, r4, lsr #32
     ed0:	00500001 	subseq	r0, r0, r1
	...
     ee0:	1c000000 	stcne	0, cr0, [r0], {-0}
     ee4:	01000000 	mrseq	r0, (UNDEF: 0)
     ee8:	001c5100 	andseq	r5, ip, r0, lsl #2
     eec:	002c0000 	eoreq	r0, ip, r0
     ef0:	00010000 	andeq	r0, r1, r0
     ef4:	00000051 	andeq	r0, r0, r1, asr r0
	...
     f04:	04000000 	streq	r0, [r0], #-0
     f08:	01000000 	mrseq	r0, (UNDEF: 0)
     f0c:	00045100 	andeq	r5, r4, r0, lsl #2
     f10:	000c0000 	andeq	r0, ip, r0
     f14:	00010000 	andeq	r0, r1, r0
     f18:	00000c51 	andeq	r0, r0, r1, asr ip
     f1c:	00002000 	andeq	r2, r0, r0
     f20:	71000300 	mrsvc	r0, LR_irq
     f24:	00009f7f 	andeq	r9, r0, pc, ror pc
     f28:	00000000 	andeq	r0, r0, r0
     f2c:	00020000 	andeq	r0, r2, r0
	...
     f38:	00000004 	andeq	r0, r0, r4
     f3c:	04500001 	ldrbeq	r0, [r0], #-1
     f40:	14000000 	strne	r0, [r0], #-0
     f44:	01000000 	mrseq	r0, (UNDEF: 0)
     f48:	00145c00 	andseq	r5, r4, r0, lsl #24
     f4c:	00200000 	eoreq	r0, r0, r0
     f50:	00030000 	andeq	r0, r3, r0
     f54:	009f7f7c 	addseq	r7, pc, ip, ror pc	; <UNPREDICTABLE>
	...
     f64:	1c000000 	stcne	0, cr0, [r0], {-0}
     f68:	01000000 	mrseq	r0, (UNDEF: 0)
     f6c:	001c5100 	andseq	r5, ip, r0, lsl #2
     f70:	00340000 	eorseq	r0, r4, r0
     f74:	00040000 	andeq	r0, r4, r0
     f78:	9f5101f3 	svcls	0x005101f3
	...
     f84:	00000002 	andeq	r0, r0, r2
     f88:	00010100 	andeq	r0, r1, r0, lsl #2
     f8c:	00000000 	andeq	r0, r0, r0
     f90:	00040000 	andeq	r0, r4, r0
     f94:	00010000 	andeq	r0, r1, r0
     f98:	00000450 	andeq	r0, r0, r0, asr r4
     f9c:	00001c00 	andeq	r1, r0, r0, lsl #24
     fa0:	52000100 	andpl	r0, r0, #0, 2
     fa4:	0000001c 	andeq	r0, r0, ip, lsl r0
     fa8:	00000024 	andeq	r0, r0, r4, lsr #32
     fac:	24530001 	ldrbcs	r0, [r3], #-1
     fb0:	28000000 	stmdacs	r0, {}	; <UNPREDICTABLE>
     fb4:	03000000 	movweq	r0, #0
     fb8:	9f017300 	svcls	0x00017300
     fbc:	00000028 	andeq	r0, r0, r8, lsr #32
     fc0:	00000034 	andeq	r0, r0, r4, lsr r0
     fc4:	00530001 	subseq	r0, r3, r1
     fc8:	00000000 	andeq	r0, r0, r0
     fcc:	03000000 	movweq	r0, #0
     fd0:	00000000 	andeq	r0, r0, r0
     fd4:	24000000 	strcs	r0, [r0], #-0
     fd8:	01000000 	mrseq	r0, (UNDEF: 0)
     fdc:	00245100 	eoreq	r5, r4, r0, lsl #2
     fe0:	00340000 	eorseq	r0, r4, r0
     fe4:	00030000 	andeq	r0, r3, r0
     fe8:	009f7f71 	addseq	r7, pc, r1, ror pc	; <UNPREDICTABLE>
	...
     ff4:	10000000 	andne	r0, r0, r0
     ff8:	1c000000 	stcne	0, cr0, [r0], {-0}
     ffc:	01000000 	mrseq	r0, (UNDEF: 0)
    1000:	00245c00 	eoreq	r5, r4, r0, lsl #24
    1004:	00340000 	eorseq	r0, r4, r0
    1008:	00010000 	andeq	r0, r1, r0
    100c:	00000052 	andeq	r0, r0, r2, asr r0
    1010:	00000000 	andeq	r0, r0, r0
    1014:	03030000 	movweq	r0, #12288	; 0x3000
    1018:	008fc400 	addeq	ip, pc, r0, lsl #8
    101c:	008fc400 	addeq	ip, pc, r0, lsl #8
    1020:	50000100 	andpl	r0, r0, r0, lsl #2
    1024:	00008fc4 	andeq	r8, r0, r4, asr #31
    1028:	00008ff0 	strdeq	r8, [r0], -r0
    102c:	01f30004 	mvnseq	r0, r4
    1030:	00009f50 	andeq	r9, r0, r0, asr pc
    1034:	00000000 	andeq	r0, r0, r0
    1038:	03000000 	movweq	r0, #0
    103c:	8fc40003 	svchi	0x00c40003
    1040:	8fc40000 	svchi	0x00c40000
    1044:	00010000 	andeq	r0, r1, r0
    1048:	008fc451 	addeq	ip, pc, r1, asr r4	; <UNPREDICTABLE>
    104c:	008ff000 	addeq	pc, pc, r0
    1050:	f3000400 	vshl.u8	d0, d0, d0
    1054:	009f5101 	addseq	r5, pc, r1, lsl #2
	...
    1060:	00000303 	andeq	r0, r0, r3, lsl #6
    1064:	008fc400 	addeq	ip, pc, r0, lsl #8
    1068:	008fc400 	addeq	ip, pc, r0, lsl #8
    106c:	52000100 	andpl	r0, r0, #0, 2
    1070:	00008fc4 	andeq	r8, r0, r4, asr #31
    1074:	00008fcc 	andeq	r8, r0, ip, asr #31
    1078:	cc520001 	mrrcgt	0, 0, r0, r2, cr1
    107c:	f000008f 			; <UNDEFINED> instruction: 0xf000008f
    1080:	0300008f 	movweq	r0, #143	; 0x8f
    1084:	9f017200 	svcls	0x00017200
	...
    1090:	00010102 	andeq	r0, r1, r2, lsl #2
    1094:	00000000 	andeq	r0, r0, r0
    1098:	00008fc4 	andeq	r8, r0, r4, asr #31
    109c:	00008fd0 	ldrdeq	r8, [r0], -r0
    10a0:	d0500001 	subsle	r0, r0, r1
    10a4:	d400008f 	strle	r0, [r0], #-143	; 0xffffff71
    10a8:	0300008f 	movweq	r0, #143	; 0x8f
    10ac:	9f017000 	svcls	0x00017000
    10b0:	00008fd4 	ldrdeq	r8, [r0], -r4
    10b4:	00008fe4 	andeq	r8, r0, r4, ror #31
    10b8:	e8500001 	ldmda	r0, {r0}^
    10bc:	ec00008f 	stc	0, cr0, [r0], {143}	; 0x8f
    10c0:	0100008f 	smlabbeq	r0, pc, r0, r0	; <UNPREDICTABLE>
    10c4:	00005000 	andeq	r5, r0, r0
    10c8:	00000000 	andeq	r0, r0, r0
    10cc:	00020000 	andeq	r0, r2, r0
    10d0:	00000000 	andeq	r0, r0, r0
    10d4:	00008fc4 	andeq	r8, r0, r4, asr #31
    10d8:	00008fd4 	ldrdeq	r8, [r0], -r4
    10dc:	d4510001 	ldrble	r0, [r1], #-1
    10e0:	d800008f 	stmdale	r0, {r0, r1, r2, r3, r7}
    10e4:	0300008f 	movweq	r0, #143	; 0x8f
    10e8:	9f017100 	svcls	0x00017100
    10ec:	00008fd8 	ldrdeq	r8, [r0], -r8	; <UNPREDICTABLE>
    10f0:	00008ff0 	strdeq	r8, [r0], -r0
    10f4:	00510001 	subseq	r0, r1, r1
    10f8:	00000000 	andeq	r0, r0, r0
    10fc:	Address 0x00000000000010fc is out of bounds.


Disassembly of section .debug_ranges:

00000000 <.debug_ranges>:
   0:	00000188 	andeq	r0, r0, r8, lsl #3
   4:	0000018c 	andeq	r0, r0, ip, lsl #3
   8:	00000190 	muleq	r0, r0, r1
   c:	000001c0 	andeq	r0, r0, r0, asr #3
	...
  18:	00008530 	andeq	r8, r0, r0, lsr r5
  1c:	000085b0 			; <UNDEFINED> instruction: 0x000085b0
	...
  28:	00008fc4 	andeq	r8, r0, r4, asr #31
  2c:	00008ff0 	strdeq	r8, [r0], -r0
	...
